
../bin/core:     file format elf64-x86-64


Disassembly of section .init:

0000000000004000 <_init>:
    4000:	f3 0f 1e fa          	endbr64 
    4004:	48 83 ec 08          	sub    rsp,0x8
    4008:	48 8b 05 d9 5f 04 00 	mov    rax,QWORD PTR [rip+0x45fd9]        # 49fe8 <__gmon_start__>
    400f:	48 85 c0             	test   rax,rax
    4012:	74 02                	je     4016 <_init+0x16>
    4014:	ff d0                	call   rax
    4016:	48 83 c4 08          	add    rsp,0x8
    401a:	c3                   	ret    

Disassembly of section .plt:

0000000000004020 <ftell@plt-0x10>:
    4020:	ff 35 e2 5f 04 00    	push   QWORD PTR [rip+0x45fe2]        # 4a008 <_GLOBAL_OFFSET_TABLE_+0x8>
    4026:	ff 25 e4 5f 04 00    	jmp    QWORD PTR [rip+0x45fe4]        # 4a010 <_GLOBAL_OFFSET_TABLE_+0x10>
    402c:	0f 1f 40 00          	nop    DWORD PTR [rax+0x0]

0000000000004030 <ftell@plt>:
    4030:	ff 25 e2 5f 04 00    	jmp    QWORD PTR [rip+0x45fe2]        # 4a018 <ftell@GLIBC_2.2.5>
    4036:	68 00 00 00 00       	push   0x0
    403b:	e9 e0 ff ff ff       	jmp    4020 <_init+0x20>

0000000000004040 <std::__cxx11::basic_string<char, std::char_traits<char>, std::allocator<char> >::capacity() const@plt>:
    4040:	ff 25 da 5f 04 00    	jmp    QWORD PTR [rip+0x45fda]        # 4a020 <std::__cxx11::basic_string<char, std::char_traits<char>, std::allocator<char> >::capacity() const@GLIBCXX_3.4.21>
    4046:	68 01 00 00 00       	push   0x1
    404b:	e9 d0 ff ff ff       	jmp    4020 <_init+0x20>

0000000000004050 <std::__cxx11::basic_string<char, std::char_traits<char>, std::allocator<char> >::operator=(std::__cxx11::basic_string<char, std::char_traits<char>, std::allocator<char> > const&)@plt>:
    4050:	ff 25 d2 5f 04 00    	jmp    QWORD PTR [rip+0x45fd2]        # 4a028 <std::__cxx11::basic_string<char, std::char_traits<char>, std::allocator<char> >::operator=(std::__cxx11::basic_string<char, std::char_traits<char>, std::allocator<char> > const&)@GLIBCXX_3.4.21>
    4056:	68 02 00 00 00       	push   0x2
    405b:	e9 c0 ff ff ff       	jmp    4020 <_init+0x20>

0000000000004060 <__errno_location@plt>:
    4060:	ff 25 ca 5f 04 00    	jmp    QWORD PTR [rip+0x45fca]        # 4a030 <__errno_location@GLIBC_2.2.5>
    4066:	68 03 00 00 00       	push   0x3
    406b:	e9 b0 ff ff ff       	jmp    4020 <_init+0x20>

0000000000004070 <std::__cxx11::basic_string<char, std::char_traits<char>, std::allocator<char> >::append(char const*, unsigned long)@plt>:
    4070:	ff 25 c2 5f 04 00    	jmp    QWORD PTR [rip+0x45fc2]        # 4a038 <std::__cxx11::basic_string<char, std::char_traits<char>, std::allocator<char> >::append(char const*, unsigned long)@GLIBCXX_3.4.21>
    4076:	68 04 00 00 00       	push   0x4
    407b:	e9 a0 ff ff ff       	jmp    4020 <_init+0x20>

0000000000004080 <std::allocator<char>::~allocator()@plt>:
    4080:	ff 25 ba 5f 04 00    	jmp    QWORD PTR [rip+0x45fba]        # 4a040 <std::allocator<char>::~allocator()@GLIBCXX_3.4>
    4086:	68 05 00 00 00       	push   0x5
    408b:	e9 90 ff ff ff       	jmp    4020 <_init+0x20>

0000000000004090 <std::basic_istream<char, std::char_traits<char> >& std::getline<char, std::char_traits<char>, std::allocator<char> >(std::basic_istream<char, std::char_traits<char> >&, std::__cxx11::basic_string<char, std::char_traits<char>, std::allocator<char> >&)@plt>:
    4090:	ff 25 b2 5f 04 00    	jmp    QWORD PTR [rip+0x45fb2]        # 4a048 <std::basic_istream<char, std::char_traits<char> >& std::getline<char, std::char_traits<char>, std::allocator<char> >(std::basic_istream<char, std::char_traits<char> >&, std::__cxx11::basic_string<char, std::char_traits<char>, std::allocator<char> >&)@GLIBCXX_3.4.21>
    4096:	68 06 00 00 00       	push   0x6
    409b:	e9 80 ff ff ff       	jmp    4020 <_init+0x20>

00000000000040a0 <std::basic_ifstream<char, std::char_traits<char> >::close()@plt>:
    40a0:	ff 25 aa 5f 04 00    	jmp    QWORD PTR [rip+0x45faa]        # 4a050 <std::basic_ifstream<char, std::char_traits<char> >::close()@GLIBCXX_3.4>
    40a6:	68 07 00 00 00       	push   0x7
    40ab:	e9 70 ff ff ff       	jmp    4020 <_init+0x20>

00000000000040b0 <std::ostream::operator<<(unsigned long)@plt>:
    40b0:	ff 25 a2 5f 04 00    	jmp    QWORD PTR [rip+0x45fa2]        # 4a058 <std::ostream::operator<<(unsigned long)@GLIBCXX_3.4>
    40b6:	68 08 00 00 00       	push   0x8
    40bb:	e9 60 ff ff ff       	jmp    4020 <_init+0x20>

00000000000040c0 <std::basic_ifstream<char, std::char_traits<char> >::~basic_ifstream()@plt>:
    40c0:	ff 25 9a 5f 04 00    	jmp    QWORD PTR [rip+0x45f9a]        # 4a060 <std::basic_ifstream<char, std::char_traits<char> >::~basic_ifstream()@GLIBCXX_3.4>
    40c6:	68 09 00 00 00       	push   0x9
    40cb:	e9 50 ff ff ff       	jmp    4020 <_init+0x20>

00000000000040d0 <std::filesystem::__cxx11::path::_List::_Impl_deleter::operator()(std::filesystem::__cxx11::path::_List::_Impl*) const@plt>:
    40d0:	ff 25 92 5f 04 00    	jmp    QWORD PTR [rip+0x45f92]        # 4a068 <std::filesystem::__cxx11::path::_List::_Impl_deleter::operator()(std::filesystem::__cxx11::path::_List::_Impl*) const@GLIBCXX_3.4.26>
    40d6:	68 0a 00 00 00       	push   0xa
    40db:	e9 40 ff ff ff       	jmp    4020 <_init+0x20>

00000000000040e0 <std::filesystem::__cxx11::path::_List::_List()@plt>:
    40e0:	ff 25 8a 5f 04 00    	jmp    QWORD PTR [rip+0x45f8a]        # 4a070 <std::filesystem::__cxx11::path::_List::_List()@GLIBCXX_3.4.26>
    40e6:	68 0b 00 00 00       	push   0xb
    40eb:	e9 30 ff ff ff       	jmp    4020 <_init+0x20>

00000000000040f0 <snd_pcm_hw_params_set_access@plt>:
    40f0:	ff 25 82 5f 04 00    	jmp    QWORD PTR [rip+0x45f82]        # 4a078 <snd_pcm_hw_params_set_access@ALSA_0.9>
    40f6:	68 0c 00 00 00       	push   0xc
    40fb:	e9 20 ff ff ff       	jmp    4020 <_init+0x20>

0000000000004100 <std::__cxx11::basic_string<char, std::char_traits<char>, std::allocator<char> >::compare(char const*) const@plt>:
    4100:	ff 25 7a 5f 04 00    	jmp    QWORD PTR [rip+0x45f7a]        # 4a080 <std::__cxx11::basic_string<char, std::char_traits<char>, std::allocator<char> >::compare(char const*) const@GLIBCXX_3.4.21>
    4106:	68 0d 00 00 00       	push   0xd
    410b:	e9 10 ff ff ff       	jmp    4020 <_init+0x20>

0000000000004110 <std::__throw_bad_alloc()@plt>:
    4110:	ff 25 72 5f 04 00    	jmp    QWORD PTR [rip+0x45f72]        # 4a088 <std::__throw_bad_alloc()@GLIBCXX_3.4>
    4116:	68 0e 00 00 00       	push   0xe
    411b:	e9 00 ff ff ff       	jmp    4020 <_init+0x20>

0000000000004120 <std::__cxx11::basic_string<char, std::char_traits<char>, std::allocator<char> >::get_allocator() const@plt>:
    4120:	ff 25 6a 5f 04 00    	jmp    QWORD PTR [rip+0x45f6a]        # 4a090 <std::__cxx11::basic_string<char, std::char_traits<char>, std::allocator<char> >::get_allocator() const@GLIBCXX_3.4.21>
    4126:	68 0f 00 00 00       	push   0xf
    412b:	e9 f0 fe ff ff       	jmp    4020 <_init+0x20>

0000000000004130 <std::__cxx11::basic_string<char, std::char_traits<char>, std::allocator<char> >::__sv_wrapper::__sv_wrapper(std::basic_string_view<char, std::char_traits<char> >)@plt>:
    4130:	ff 25 62 5f 04 00    	jmp    QWORD PTR [rip+0x45f62]        # 4a098 <std::__cxx11::basic_string<char, std::char_traits<char>, std::allocator<char> >::__sv_wrapper::__sv_wrapper(std::basic_string_view<char, std::char_traits<char> >)@GLIBCXX_3.4.26>
    4136:	68 10 00 00 00       	push   0x10
    413b:	e9 e0 fe ff ff       	jmp    4020 <_init+0x20>

0000000000004140 <__cxa_begin_catch@plt>:
    4140:	ff 25 5a 5f 04 00    	jmp    QWORD PTR [rip+0x45f5a]        # 4a0a0 <__cxa_begin_catch@CXXABI_1.3>
    4146:	68 11 00 00 00       	push   0x11
    414b:	e9 d0 fe ff ff       	jmp    4020 <_init+0x20>

0000000000004150 <std::__cxx11::basic_string<char, std::char_traits<char>, std::allocator<char> >::c_str() const@plt>:
    4150:	ff 25 52 5f 04 00    	jmp    QWORD PTR [rip+0x45f52]        # 4a0a8 <std::__cxx11::basic_string<char, std::char_traits<char>, std::allocator<char> >::c_str() const@GLIBCXX_3.4.21>
    4156:	68 12 00 00 00       	push   0x12
    415b:	e9 c0 fe ff ff       	jmp    4020 <_init+0x20>

0000000000004160 <snd_pcm_hw_params_get_buffer_size@plt>:
    4160:	ff 25 4a 5f 04 00    	jmp    QWORD PTR [rip+0x45f4a]        # 4a0b0 <snd_pcm_hw_params_get_buffer_size@ALSA_0.9.0rc4>
    4166:	68 13 00 00 00       	push   0x13
    416b:	e9 b0 fe ff ff       	jmp    4020 <_init+0x20>

0000000000004170 <std::__cxx11::basic_string<char, std::char_traits<char>, std::allocator<char> >::basic_string(std::__cxx11::basic_string<char, std::char_traits<char>, std::allocator<char> > const&)@plt>:
    4170:	ff 25 42 5f 04 00    	jmp    QWORD PTR [rip+0x45f42]        # 4a0b8 <std::__cxx11::basic_string<char, std::char_traits<char>, std::allocator<char> >::basic_string(std::__cxx11::basic_string<char, std::char_traits<char>, std::allocator<char> > const&)@GLIBCXX_3.4.21>
    4176:	68 14 00 00 00       	push   0x14
    417b:	e9 a0 fe ff ff       	jmp    4020 <_init+0x20>

0000000000004180 <strlen@plt>:
    4180:	ff 25 3a 5f 04 00    	jmp    QWORD PTR [rip+0x45f3a]        # 4a0c0 <strlen@GLIBC_2.2.5>
    4186:	68 15 00 00 00       	push   0x15
    418b:	e9 90 fe ff ff       	jmp    4020 <_init+0x20>

0000000000004190 <memcmp@plt>:
    4190:	ff 25 32 5f 04 00    	jmp    QWORD PTR [rip+0x45f32]        # 4a0c8 <memcmp@GLIBC_2.2.5>
    4196:	68 16 00 00 00       	push   0x16
    419b:	e9 80 fe ff ff       	jmp    4020 <_init+0x20>

00000000000041a0 <strncmp@plt>:
    41a0:	ff 25 2a 5f 04 00    	jmp    QWORD PTR [rip+0x45f2a]        # 4a0d0 <strncmp@GLIBC_2.2.5>
    41a6:	68 17 00 00 00       	push   0x17
    41ab:	e9 70 fe ff ff       	jmp    4020 <_init+0x20>

00000000000041b0 <snd_pcm_hw_params_set_format@plt>:
    41b0:	ff 25 22 5f 04 00    	jmp    QWORD PTR [rip+0x45f22]        # 4a0d8 <snd_pcm_hw_params_set_format@ALSA_0.9>
    41b6:	68 18 00 00 00       	push   0x18
    41bb:	e9 60 fe ff ff       	jmp    4020 <_init+0x20>

00000000000041c0 <std::__cxx11::basic_string<char, std::char_traits<char>, std::allocator<char> >::find_first_of(char const*, unsigned long) const@plt>:
    41c0:	ff 25 1a 5f 04 00    	jmp    QWORD PTR [rip+0x45f1a]        # 4a0e0 <std::__cxx11::basic_string<char, std::char_traits<char>, std::allocator<char> >::find_first_of(char const*, unsigned long) const@GLIBCXX_3.4.21>
    41c6:	68 19 00 00 00       	push   0x19
    41cb:	e9 50 fe ff ff       	jmp    4020 <_init+0x20>

00000000000041d0 <std::__throw_length_error(char const*)@plt>:
    41d0:	ff 25 12 5f 04 00    	jmp    QWORD PTR [rip+0x45f12]        # 4a0e8 <std::__throw_length_error(char const*)@GLIBCXX_3.4>
    41d6:	68 1a 00 00 00       	push   0x1a
    41db:	e9 40 fe ff ff       	jmp    4020 <_init+0x20>

00000000000041e0 <memset@plt>:
    41e0:	ff 25 0a 5f 04 00    	jmp    QWORD PTR [rip+0x45f0a]        # 4a0f0 <memset@GLIBC_2.2.5>
    41e6:	68 1b 00 00 00       	push   0x1b
    41eb:	e9 30 fe ff ff       	jmp    4020 <_init+0x20>

00000000000041f0 <dlerror@plt>:
    41f0:	ff 25 02 5f 04 00    	jmp    QWORD PTR [rip+0x45f02]        # 4a0f8 <dlerror@GLIBC_2.2.5>
    41f6:	68 1c 00 00 00       	push   0x1c
    41fb:	e9 20 fe ff ff       	jmp    4020 <_init+0x20>

0000000000004200 <tan@plt>:
    4200:	ff 25 fa 5e 04 00    	jmp    QWORD PTR [rip+0x45efa]        # 4a100 <tan@GLIBC_2.2.5>
    4206:	68 1d 00 00 00       	push   0x1d
    420b:	e9 10 fe ff ff       	jmp    4020 <_init+0x20>

0000000000004210 <std::allocator<char>::allocator(std::allocator<char> const&)@plt>:
    4210:	ff 25 f2 5e 04 00    	jmp    QWORD PTR [rip+0x45ef2]        # 4a108 <std::allocator<char>::allocator(std::allocator<char> const&)@GLIBCXX_3.4>
    4216:	68 1e 00 00 00       	push   0x1e
    421b:	e9 00 fe ff ff       	jmp    4020 <_init+0x20>

0000000000004220 <std::__cxx11::basic_string<char, std::char_traits<char>, std::allocator<char> >::data()@plt>:
    4220:	ff 25 ea 5e 04 00    	jmp    QWORD PTR [rip+0x45eea]        # 4a110 <std::__cxx11::basic_string<char, std::char_traits<char>, std::allocator<char> >::data()@GLIBCXX_3.4.26>
    4226:	68 1f 00 00 00       	push   0x1f
    422b:	e9 f0 fd ff ff       	jmp    4020 <_init+0x20>

0000000000004230 <std::__cxx11::basic_string<char, std::char_traits<char>, std::allocator<char> >::find_first_not_of(char const*, unsigned long) const@plt>:
    4230:	ff 25 e2 5e 04 00    	jmp    QWORD PTR [rip+0x45ee2]        # 4a118 <std::__cxx11::basic_string<char, std::char_traits<char>, std::allocator<char> >::find_first_not_of(char const*, unsigned long) const@GLIBCXX_3.4.21>
    4236:	68 20 00 00 00       	push   0x20
    423b:	e9 e0 fd ff ff       	jmp    4020 <_init+0x20>

0000000000004240 <std::__cxx11::basic_string<char, std::char_traits<char>, std::allocator<char> >::basic_string(std::__cxx11::basic_string<char, std::char_traits<char>, std::allocator<char> >&&)@plt>:
    4240:	ff 25 da 5e 04 00    	jmp    QWORD PTR [rip+0x45eda]        # 4a120 <std::__cxx11::basic_string<char, std::char_traits<char>, std::allocator<char> >::basic_string(std::__cxx11::basic_string<char, std::char_traits<char>, std::allocator<char> >&&)@GLIBCXX_3.4.21>
    4246:	68 21 00 00 00       	push   0x21
    424b:	e9 d0 fd ff ff       	jmp    4020 <_init+0x20>

0000000000004250 <std::__throw_invalid_argument(char const*)@plt>:
    4250:	ff 25 d2 5e 04 00    	jmp    QWORD PTR [rip+0x45ed2]        # 4a128 <std::__throw_invalid_argument(char const*)@GLIBCXX_3.4>
    4256:	68 22 00 00 00       	push   0x22
    425b:	e9 c0 fd ff ff       	jmp    4020 <_init+0x20>

0000000000004260 <std::__cxx11::basic_string<char, std::char_traits<char>, std::allocator<char> >::~basic_string()@plt>:
    4260:	ff 25 ca 5e 04 00    	jmp    QWORD PTR [rip+0x45eca]        # 4a130 <std::__cxx11::basic_string<char, std::char_traits<char>, std::allocator<char> >::~basic_string()@GLIBCXX_3.4.21>
    4266:	68 23 00 00 00       	push   0x23
    426b:	e9 b0 fd ff ff       	jmp    4020 <_init+0x20>

0000000000004270 <std::__cxx11::basic_string<char, std::char_traits<char>, std::allocator<char> >::operator+=(char)@plt>:
    4270:	ff 25 c2 5e 04 00    	jmp    QWORD PTR [rip+0x45ec2]        # 4a138 <std::__cxx11::basic_string<char, std::char_traits<char>, std::allocator<char> >::operator+=(char)@GLIBCXX_3.4.21>
    4276:	68 24 00 00 00       	push   0x24
    427b:	e9 a0 fd ff ff       	jmp    4020 <_init+0x20>

0000000000004280 <__assert_fail@plt>:
    4280:	ff 25 ba 5e 04 00    	jmp    QWORD PTR [rip+0x45eba]        # 4a140 <__assert_fail@GLIBC_2.2.5>
    4286:	68 25 00 00 00       	push   0x25
    428b:	e9 90 fd ff ff       	jmp    4020 <_init+0x20>

0000000000004290 <snd_pcm_open@plt>:
    4290:	ff 25 b2 5e 04 00    	jmp    QWORD PTR [rip+0x45eb2]        # 4a148 <snd_pcm_open@ALSA_0.9>
    4296:	68 26 00 00 00       	push   0x26
    429b:	e9 80 fd ff ff       	jmp    4020 <_init+0x20>

00000000000042a0 <std::__cxx11::basic_string<char, std::char_traits<char>, std::allocator<char> >::_M_set_length(unsigned long)@plt>:
    42a0:	ff 25 aa 5e 04 00    	jmp    QWORD PTR [rip+0x45eaa]        # 4a150 <std::__cxx11::basic_string<char, std::char_traits<char>, std::allocator<char> >::_M_set_length(unsigned long)@GLIBCXX_3.4.21>
    42a6:	68 27 00 00 00       	push   0x27
    42ab:	e9 70 fd ff ff       	jmp    4020 <_init+0x20>

00000000000042b0 <std::__cxx11::basic_string<char, std::char_traits<char>, std::allocator<char> >::size() const@plt>:
    42b0:	ff 25 a2 5e 04 00    	jmp    QWORD PTR [rip+0x45ea2]        # 4a158 <std::__cxx11::basic_string<char, std::char_traits<char>, std::allocator<char> >::size() const@GLIBCXX_3.4.21>
    42b6:	68 28 00 00 00       	push   0x28
    42bb:	e9 60 fd ff ff       	jmp    4020 <_init+0x20>

00000000000042c0 <std::__throw_logic_error(char const*)@plt>:
    42c0:	ff 25 9a 5e 04 00    	jmp    QWORD PTR [rip+0x45e9a]        # 4a160 <std::__throw_logic_error(char const*)@GLIBCXX_3.4>
    42c6:	68 29 00 00 00       	push   0x29
    42cb:	e9 50 fd ff ff       	jmp    4020 <_init+0x20>

00000000000042d0 <aligned_alloc@plt>:
    42d0:	ff 25 92 5e 04 00    	jmp    QWORD PTR [rip+0x45e92]        # 4a168 <aligned_alloc@GLIBC_2.16>
    42d6:	68 2a 00 00 00       	push   0x2a
    42db:	e9 40 fd ff ff       	jmp    4020 <_init+0x20>

00000000000042e0 <cosf@plt>:
    42e0:	ff 25 8a 5e 04 00    	jmp    QWORD PTR [rip+0x45e8a]        # 4a170 <cosf@GLIBC_2.2.5>
    42e6:	68 2b 00 00 00       	push   0x2b
    42eb:	e9 30 fd ff ff       	jmp    4020 <_init+0x20>

00000000000042f0 <std::ostream::operator<<(float)@plt>:
    42f0:	ff 25 82 5e 04 00    	jmp    QWORD PTR [rip+0x45e82]        # 4a178 <std::ostream::operator<<(float)@GLIBCXX_3.4>
    42f6:	68 2c 00 00 00       	push   0x2c
    42fb:	e9 20 fd ff ff       	jmp    4020 <_init+0x20>

0000000000004300 <dlclose@plt>:
    4300:	ff 25 7a 5e 04 00    	jmp    QWORD PTR [rip+0x45e7a]        # 4a180 <dlclose@GLIBC_2.2.5>
    4306:	68 2d 00 00 00       	push   0x2d
    430b:	e9 10 fd ff ff       	jmp    4020 <_init+0x20>

0000000000004310 <std::__throw_bad_array_new_length()@plt>:
    4310:	ff 25 72 5e 04 00    	jmp    QWORD PTR [rip+0x45e72]        # 4a188 <std::__throw_bad_array_new_length()@GLIBCXX_3.4.29>
    4316:	68 2e 00 00 00       	push   0x2e
    431b:	e9 00 fd ff ff       	jmp    4020 <_init+0x20>

0000000000004320 <snd_strerror@plt>:
    4320:	ff 25 6a 5e 04 00    	jmp    QWORD PTR [rip+0x45e6a]        # 4a190 <snd_strerror@ALSA_0.9>
    4326:	68 2f 00 00 00       	push   0x2f
    432b:	e9 f0 fc ff ff       	jmp    4020 <_init+0x20>

0000000000004330 <std::filesystem::__cxx11::path::_M_split_cmpts()@plt>:
    4330:	ff 25 62 5e 04 00    	jmp    QWORD PTR [rip+0x45e62]        # 4a198 <std::filesystem::__cxx11::path::_M_split_cmpts()@GLIBCXX_3.4.26>
    4336:	68 30 00 00 00       	push   0x30
    433b:	e9 e0 fc ff ff       	jmp    4020 <_init+0x20>

0000000000004340 <snd_pcm_hw_params_set_period_size_near@plt>:
    4340:	ff 25 5a 5e 04 00    	jmp    QWORD PTR [rip+0x45e5a]        # 4a1a0 <snd_pcm_hw_params_set_period_size_near@ALSA_0.9.0rc4>
    4346:	68 31 00 00 00       	push   0x31
    434b:	e9 d0 fc ff ff       	jmp    4020 <_init+0x20>

0000000000004350 <std::__cxx11::basic_string<char, std::char_traits<char>, std::allocator<char> >::_M_local_data()@plt>:
    4350:	ff 25 52 5e 04 00    	jmp    QWORD PTR [rip+0x45e52]        # 4a1a8 <std::__cxx11::basic_string<char, std::char_traits<char>, std::allocator<char> >::_M_local_data()@GLIBCXX_3.4.21>
    4356:	68 32 00 00 00       	push   0x32
    435b:	e9 c0 fc ff ff       	jmp    4020 <_init+0x20>

0000000000004360 <std::filesystem::last_write_time(std::filesystem::__cxx11::path const&)@plt>:
    4360:	ff 25 4a 5e 04 00    	jmp    QWORD PTR [rip+0x45e4a]        # 4a1b0 <std::filesystem::last_write_time(std::filesystem::__cxx11::path const&)@GLIBCXX_3.4.26>
    4366:	68 33 00 00 00       	push   0x33
    436b:	e9 b0 fc ff ff       	jmp    4020 <_init+0x20>

0000000000004370 <memcpy@plt>:
    4370:	ff 25 42 5e 04 00    	jmp    QWORD PTR [rip+0x45e42]        # 4a1b8 <memcpy@GLIBC_2.14>
    4376:	68 34 00 00 00       	push   0x34
    437b:	e9 a0 fc ff ff       	jmp    4020 <_init+0x20>

0000000000004380 <sinf@plt>:
    4380:	ff 25 3a 5e 04 00    	jmp    QWORD PTR [rip+0x45e3a]        # 4a1c0 <sinf@GLIBC_2.2.5>
    4386:	68 35 00 00 00       	push   0x35
    438b:	e9 90 fc ff ff       	jmp    4020 <_init+0x20>

0000000000004390 <snd_pcm_hw_params_get_period_size@plt>:
    4390:	ff 25 32 5e 04 00    	jmp    QWORD PTR [rip+0x45e32]        # 4a1c8 <snd_pcm_hw_params_get_period_size@ALSA_0.9.0rc4>
    4396:	68 36 00 00 00       	push   0x36
    439b:	e9 80 fc ff ff       	jmp    4020 <_init+0x20>

00000000000043a0 <std::__cxx11::basic_string<char, std::char_traits<char>, std::allocator<char> >::_M_data(char*)@plt>:
    43a0:	ff 25 2a 5e 04 00    	jmp    QWORD PTR [rip+0x45e2a]        # 4a1d0 <std::__cxx11::basic_string<char, std::char_traits<char>, std::allocator<char> >::_M_data(char*)@GLIBCXX_3.4.21>
    43a6:	68 37 00 00 00       	push   0x37
    43ab:	e9 70 fc ff ff       	jmp    4020 <_init+0x20>

00000000000043b0 <snd_pcm_writei@plt>:
    43b0:	ff 25 22 5e 04 00    	jmp    QWORD PTR [rip+0x45e22]        # 4a1d8 <snd_pcm_writei@ALSA_0.9>
    43b6:	68 38 00 00 00       	push   0x38
    43bb:	e9 60 fc ff ff       	jmp    4020 <_init+0x20>

00000000000043c0 <snd_pcm_hw_params@plt>:
    43c0:	ff 25 1a 5e 04 00    	jmp    QWORD PTR [rip+0x45e1a]        # 4a1e0 <snd_pcm_hw_params@ALSA_0.9>
    43c6:	68 39 00 00 00       	push   0x39
    43cb:	e9 50 fc ff ff       	jmp    4020 <_init+0x20>

00000000000043d0 <__cxa_atexit@plt>:
    43d0:	ff 25 12 5e 04 00    	jmp    QWORD PTR [rip+0x45e12]        # 4a1e8 <__cxa_atexit@GLIBC_2.2.5>
    43d6:	68 3a 00 00 00       	push   0x3a
    43db:	e9 40 fc ff ff       	jmp    4020 <_init+0x20>

00000000000043e0 <std::basic_ostream<char, std::char_traits<char> >& std::operator<< <char, std::char_traits<char>, std::allocator<char> >(std::basic_ostream<char, std::char_traits<char> >&, std::__cxx11::basic_string<char, std::char_traits<char>, std::allocator<char> > const&)@plt>:
    43e0:	ff 25 0a 5e 04 00    	jmp    QWORD PTR [rip+0x45e0a]        # 4a1f0 <std::basic_ostream<char, std::char_traits<char> >& std::operator<< <char, std::char_traits<char>, std::allocator<char> >(std::basic_ostream<char, std::char_traits<char> >&, std::__cxx11::basic_string<char, std::char_traits<char>, std::allocator<char> > const&)@GLIBCXX_3.4.21>
    43e6:	68 3b 00 00 00       	push   0x3b
    43eb:	e9 30 fc ff ff       	jmp    4020 <_init+0x20>

00000000000043f0 <snd_pcm_prepare@plt>:
    43f0:	ff 25 02 5e 04 00    	jmp    QWORD PTR [rip+0x45e02]        # 4a1f8 <snd_pcm_prepare@ALSA_0.9>
    43f6:	68 3c 00 00 00       	push   0x3c
    43fb:	e9 20 fc ff ff       	jmp    4020 <_init+0x20>

0000000000004400 <std::basic_ostream<char, std::char_traits<char> >& std::operator<< <std::char_traits<char> >(std::basic_ostream<char, std::char_traits<char> >&, char const*)@plt>:
    4400:	ff 25 fa 5d 04 00    	jmp    QWORD PTR [rip+0x45dfa]        # 4a200 <std::basic_ostream<char, std::char_traits<char> >& std::operator<< <std::char_traits<char> >(std::basic_ostream<char, std::char_traits<char> >&, char const*)@GLIBCXX_3.4>
    4406:	68 3d 00 00 00       	push   0x3d
    440b:	e9 10 fc ff ff       	jmp    4020 <_init+0x20>

0000000000004410 <snd_pcm_hw_params_set_rate_near@plt>:
    4410:	ff 25 f2 5d 04 00    	jmp    QWORD PTR [rip+0x45df2]        # 4a208 <snd_pcm_hw_params_set_rate_near@ALSA_0.9.0rc4>
    4416:	68 3e 00 00 00       	push   0x3e
    441b:	e9 00 fc ff ff       	jmp    4020 <_init+0x20>

0000000000004420 <fclose@plt>:
    4420:	ff 25 ea 5d 04 00    	jmp    QWORD PTR [rip+0x45dea]        # 4a210 <fclose@GLIBC_2.2.5>
    4426:	68 3f 00 00 00       	push   0x3f
    442b:	e9 f0 fb ff ff       	jmp    4020 <_init+0x20>

0000000000004430 <operator new(unsigned long)@plt>:
    4430:	ff 25 e2 5d 04 00    	jmp    QWORD PTR [rip+0x45de2]        # 4a218 <operator new(unsigned long)@GLIBCXX_3.4>
    4436:	68 40 00 00 00       	push   0x40
    443b:	e9 e0 fb ff ff       	jmp    4020 <_init+0x20>

0000000000004440 <operator delete(void*, unsigned long)@plt>:
    4440:	ff 25 da 5d 04 00    	jmp    QWORD PTR [rip+0x45dda]        # 4a220 <operator delete(void*, unsigned long)@CXXABI_1.3.9>
    4446:	68 41 00 00 00       	push   0x41
    444b:	e9 d0 fb ff ff       	jmp    4020 <_init+0x20>

0000000000004450 <std::__cxx11::basic_string<char, std::char_traits<char>, std::allocator<char> >::substr(unsigned long, unsigned long) const@plt>:
    4450:	ff 25 d2 5d 04 00    	jmp    QWORD PTR [rip+0x45dd2]        # 4a228 <std::__cxx11::basic_string<char, std::char_traits<char>, std::allocator<char> >::substr(unsigned long, unsigned long) const@GLIBCXX_3.4.21>
    4456:	68 42 00 00 00       	push   0x42
    445b:	e9 c0 fb ff ff       	jmp    4020 <_init+0x20>

0000000000004460 <std::ostream::operator<<(std::ostream& (*)(std::ostream&))@plt>:
    4460:	ff 25 ca 5d 04 00    	jmp    QWORD PTR [rip+0x45dca]        # 4a230 <std::ostream::operator<<(std::ostream& (*)(std::ostream&))@GLIBCXX_3.4>
    4466:	68 43 00 00 00       	push   0x43
    446b:	e9 b0 fb ff ff       	jmp    4020 <_init+0x20>

0000000000004470 <acosf@plt>:
    4470:	ff 25 c2 5d 04 00    	jmp    QWORD PTR [rip+0x45dc2]        # 4a238 <acosf@GLIBC_2.2.5>
    4476:	68 44 00 00 00       	push   0x44
    447b:	e9 a0 fb ff ff       	jmp    4020 <_init+0x20>

0000000000004480 <std::__cxx11::basic_string<char, std::char_traits<char>, std::allocator<char> >::_Alloc_hider::_Alloc_hider(char*, std::allocator<char> const&)@plt>:
    4480:	ff 25 ba 5d 04 00    	jmp    QWORD PTR [rip+0x45dba]        # 4a240 <std::__cxx11::basic_string<char, std::char_traits<char>, std::allocator<char> >::_Alloc_hider::_Alloc_hider(char*, std::allocator<char> const&)@GLIBCXX_3.4.21>
    4486:	68 45 00 00 00       	push   0x45
    448b:	e9 90 fb ff ff       	jmp    4020 <_init+0x20>

0000000000004490 <std::allocator<char>::~allocator()@plt>:
    4490:	ff 25 b2 5d 04 00    	jmp    QWORD PTR [rip+0x45db2]        # 4a248 <std::allocator<char>::~allocator()@GLIBCXX_3.4>
    4496:	68 46 00 00 00       	push   0x46
    449b:	e9 80 fb ff ff       	jmp    4020 <_init+0x20>

00000000000044a0 <std::__cxx11::basic_string<char, std::char_traits<char>, std::allocator<char> >::_M_data() const@plt>:
    44a0:	ff 25 aa 5d 04 00    	jmp    QWORD PTR [rip+0x45daa]        # 4a250 <std::__cxx11::basic_string<char, std::char_traits<char>, std::allocator<char> >::_M_data() const@GLIBCXX_3.4.21>
    44a6:	68 47 00 00 00       	push   0x47
    44ab:	e9 70 fb ff ff       	jmp    4020 <_init+0x20>

00000000000044b0 <std::__cxx11::basic_string<char, std::char_traits<char>, std::allocator<char> >::operator[](unsigned long) const@plt>:
    44b0:	ff 25 a2 5d 04 00    	jmp    QWORD PTR [rip+0x45da2]        # 4a258 <std::__cxx11::basic_string<char, std::char_traits<char>, std::allocator<char> >::operator[](unsigned long) const@GLIBCXX_3.4.21>
    44b6:	68 48 00 00 00       	push   0x48
    44bb:	e9 60 fb ff ff       	jmp    4020 <_init+0x20>

00000000000044c0 <std::__cxx11::basic_string<char, std::char_traits<char>, std::allocator<char> >::_S_copy_chars(char*, char const*, char const*)@plt>:
    44c0:	ff 25 9a 5d 04 00    	jmp    QWORD PTR [rip+0x45d9a]        # 4a260 <std::__cxx11::basic_string<char, std::char_traits<char>, std::allocator<char> >::_S_copy_chars(char*, char const*, char const*)@GLIBCXX_3.4.21>
    44c6:	68 49 00 00 00       	push   0x49
    44cb:	e9 50 fb ff ff       	jmp    4020 <_init+0x20>

00000000000044d0 <fseek@plt>:
    44d0:	ff 25 92 5d 04 00    	jmp    QWORD PTR [rip+0x45d92]        # 4a268 <fseek@GLIBC_2.2.5>
    44d6:	68 4a 00 00 00       	push   0x4a
    44db:	e9 40 fb ff ff       	jmp    4020 <_init+0x20>

00000000000044e0 <__stack_chk_fail@plt>:
    44e0:	ff 25 8a 5d 04 00    	jmp    QWORD PTR [rip+0x45d8a]        # 4a270 <__stack_chk_fail@GLIBC_2.4>
    44e6:	68 4b 00 00 00       	push   0x4b
    44eb:	e9 30 fb ff ff       	jmp    4020 <_init+0x20>

00000000000044f0 <snd_pcm_hw_params_get_period_time@plt>:
    44f0:	ff 25 82 5d 04 00    	jmp    QWORD PTR [rip+0x45d82]        # 4a278 <snd_pcm_hw_params_get_period_time@ALSA_0.9.0rc4>
    44f6:	68 4c 00 00 00       	push   0x4c
    44fb:	e9 20 fb ff ff       	jmp    4020 <_init+0x20>

0000000000004500 <snd_pcm_hw_params_sizeof@plt>:
    4500:	ff 25 7a 5d 04 00    	jmp    QWORD PTR [rip+0x45d7a]        # 4a280 <snd_pcm_hw_params_sizeof@ALSA_0.9>
    4506:	68 4d 00 00 00       	push   0x4d
    450b:	e9 10 fb ff ff       	jmp    4020 <_init+0x20>

0000000000004510 <std::__cxx11::basic_string<char, std::char_traits<char>, std::allocator<char> >::_M_construct(unsigned long, char)@plt>:
    4510:	ff 25 72 5d 04 00    	jmp    QWORD PTR [rip+0x45d72]        # 4a288 <std::__cxx11::basic_string<char, std::char_traits<char>, std::allocator<char> >::_M_construct(unsigned long, char)@GLIBCXX_3.4.21>
    4516:	68 4e 00 00 00       	push   0x4e
    451b:	e9 00 fb ff ff       	jmp    4020 <_init+0x20>

0000000000004520 <fopen@plt>:
    4520:	ff 25 6a 5d 04 00    	jmp    QWORD PTR [rip+0x45d6a]        # 4a290 <fopen@GLIBC_2.2.5>
    4526:	68 4f 00 00 00       	push   0x4f
    452b:	e9 f0 fa ff ff       	jmp    4020 <_init+0x20>

0000000000004530 <free@plt>:
    4530:	ff 25 62 5d 04 00    	jmp    QWORD PTR [rip+0x45d62]        # 4a298 <free@GLIBC_2.2.5>
    4536:	68 50 00 00 00       	push   0x50
    453b:	e9 e0 fa ff ff       	jmp    4020 <_init+0x20>

0000000000004540 <exit@plt>:
    4540:	ff 25 5a 5d 04 00    	jmp    QWORD PTR [rip+0x45d5a]        # 4a2a0 <exit@GLIBC_2.2.5>
    4546:	68 51 00 00 00       	push   0x51
    454b:	e9 d0 fa ff ff       	jmp    4020 <_init+0x20>

0000000000004550 <std::__cxx11::basic_string<char, std::char_traits<char>, std::allocator<char> >::operator=(std::__cxx11::basic_string<char, std::char_traits<char>, std::allocator<char> >&&)@plt>:
    4550:	ff 25 52 5d 04 00    	jmp    QWORD PTR [rip+0x45d52]        # 4a2a8 <std::__cxx11::basic_string<char, std::char_traits<char>, std::allocator<char> >::operator=(std::__cxx11::basic_string<char, std::char_traits<char>, std::allocator<char> >&&)@GLIBCXX_3.4.21>
    4556:	68 52 00 00 00       	push   0x52
    455b:	e9 c0 fa ff ff       	jmp    4020 <_init+0x20>

0000000000004560 <std::__cxx11::basic_string<char, std::char_traits<char>, std::allocator<char> >::_M_dispose()@plt>:
    4560:	ff 25 4a 5d 04 00    	jmp    QWORD PTR [rip+0x45d4a]        # 4a2b0 <std::__cxx11::basic_string<char, std::char_traits<char>, std::allocator<char> >::_M_dispose()@GLIBCXX_3.4.21>
    4566:	68 53 00 00 00       	push   0x53
    456b:	e9 b0 fa ff ff       	jmp    4020 <_init+0x20>

0000000000004570 <std::basic_ios<char, std::char_traits<char> >::operator bool() const@plt>:
    4570:	ff 25 42 5d 04 00    	jmp    QWORD PTR [rip+0x45d42]        # 4a2b8 <std::basic_ios<char, std::char_traits<char> >::operator bool() const@GLIBCXX_3.4.21>
    4576:	68 54 00 00 00       	push   0x54
    457b:	e9 a0 fa ff ff       	jmp    4020 <_init+0x20>

0000000000004580 <snd_pcm_close@plt>:
    4580:	ff 25 3a 5d 04 00    	jmp    QWORD PTR [rip+0x45d3a]        # 4a2c0 <snd_pcm_close@ALSA_0.9>
    4586:	68 55 00 00 00       	push   0x55
    458b:	e9 90 fa ff ff       	jmp    4020 <_init+0x20>

0000000000004590 <std::__cxx11::basic_string<char, std::char_traits<char>, std::allocator<char> >::operator+=(std::__cxx11::basic_string<char, std::char_traits<char>, std::allocator<char> > const&)@plt>:
    4590:	ff 25 32 5d 04 00    	jmp    QWORD PTR [rip+0x45d32]        # 4a2c8 <std::__cxx11::basic_string<char, std::char_traits<char>, std::allocator<char> >::operator+=(std::__cxx11::basic_string<char, std::char_traits<char>, std::allocator<char> > const&)@GLIBCXX_3.4.21>
    4596:	68 56 00 00 00       	push   0x56
    459b:	e9 80 fa ff ff       	jmp    4020 <_init+0x20>

00000000000045a0 <std::__cxx11::basic_string<char, std::char_traits<char>, std::allocator<char> >::data() const@plt>:
    45a0:	ff 25 2a 5d 04 00    	jmp    QWORD PTR [rip+0x45d2a]        # 4a2d0 <std::__cxx11::basic_string<char, std::char_traits<char>, std::allocator<char> >::data() const@GLIBCXX_3.4.21>
    45a6:	68 57 00 00 00       	push   0x57
    45ab:	e9 70 fa ff ff       	jmp    4020 <_init+0x20>

00000000000045b0 <snd_pcm_drain@plt>:
    45b0:	ff 25 22 5d 04 00    	jmp    QWORD PTR [rip+0x45d22]        # 4a2d8 <snd_pcm_drain@ALSA_0.9>
    45b6:	68 58 00 00 00       	push   0x58
    45bb:	e9 60 fa ff ff       	jmp    4020 <_init+0x20>

00000000000045c0 <std::__cxx11::basic_string<char, std::char_traits<char>, std::allocator<char> >::clear()@plt>:
    45c0:	ff 25 1a 5d 04 00    	jmp    QWORD PTR [rip+0x45d1a]        # 4a2e0 <std::__cxx11::basic_string<char, std::char_traits<char>, std::allocator<char> >::clear()@GLIBCXX_3.4.21>
    45c6:	68 59 00 00 00       	push   0x59
    45cb:	e9 50 fa ff ff       	jmp    4020 <_init+0x20>

00000000000045d0 <malloc@plt>:
    45d0:	ff 25 12 5d 04 00    	jmp    QWORD PTR [rip+0x45d12]        # 4a2e8 <malloc@GLIBC_2.2.5>
    45d6:	68 5a 00 00 00       	push   0x5a
    45db:	e9 40 fa ff ff       	jmp    4020 <_init+0x20>

00000000000045e0 <snd_pcm_hw_params_set_channels@plt>:
    45e0:	ff 25 0a 5d 04 00    	jmp    QWORD PTR [rip+0x45d0a]        # 4a2f0 <snd_pcm_hw_params_set_channels@ALSA_0.9>
    45e6:	68 5b 00 00 00       	push   0x5b
    45eb:	e9 30 fa ff ff       	jmp    4020 <_init+0x20>

00000000000045f0 <std::ostream::operator<<(unsigned int)@plt>:
    45f0:	ff 25 02 5d 04 00    	jmp    QWORD PTR [rip+0x45d02]        # 4a2f8 <std::ostream::operator<<(unsigned int)@GLIBCXX_3.4>
    45f6:	68 5c 00 00 00       	push   0x5c
    45fb:	e9 20 fa ff ff       	jmp    4020 <_init+0x20>

0000000000004600 <ldexpf@plt>:
    4600:	ff 25 fa 5c 04 00    	jmp    QWORD PTR [rip+0x45cfa]        # 4a300 <ldexpf@GLIBC_2.2.5>
    4606:	68 5d 00 00 00       	push   0x5d
    460b:	e9 10 fa ff ff       	jmp    4020 <_init+0x20>

0000000000004610 <std::__cxx11::basic_string<char, std::char_traits<char>, std::allocator<char> >::operator=(char const*)@plt>:
    4610:	ff 25 f2 5c 04 00    	jmp    QWORD PTR [rip+0x45cf2]        # 4a308 <std::__cxx11::basic_string<char, std::char_traits<char>, std::allocator<char> >::operator=(char const*)@GLIBCXX_3.4.21>
    4616:	68 5e 00 00 00       	push   0x5e
    461b:	e9 00 fa ff ff       	jmp    4020 <_init+0x20>

0000000000004620 <std::__cxx11::basic_string<char, std::char_traits<char>, std::allocator<char> >::basic_string()@plt>:
    4620:	ff 25 ea 5c 04 00    	jmp    QWORD PTR [rip+0x45cea]        # 4a310 <std::__cxx11::basic_string<char, std::char_traits<char>, std::allocator<char> >::basic_string()@GLIBCXX_3.4.21>
    4626:	68 5f 00 00 00       	push   0x5f
    462b:	e9 f0 f9 ff ff       	jmp    4020 <_init+0x20>

0000000000004630 <strcmp@plt>:
    4630:	ff 25 e2 5c 04 00    	jmp    QWORD PTR [rip+0x45ce2]        # 4a318 <strcmp@GLIBC_2.2.5>
    4636:	68 60 00 00 00       	push   0x60
    463b:	e9 e0 f9 ff ff       	jmp    4020 <_init+0x20>

0000000000004640 <std::__throw_out_of_range(char const*)@plt>:
    4640:	ff 25 da 5c 04 00    	jmp    QWORD PTR [rip+0x45cda]        # 4a320 <std::__throw_out_of_range(char const*)@GLIBCXX_3.4>
    4646:	68 61 00 00 00       	push   0x61
    464b:	e9 d0 f9 ff ff       	jmp    4020 <_init+0x20>

0000000000004650 <__cxa_rethrow@plt>:
    4650:	ff 25 d2 5c 04 00    	jmp    QWORD PTR [rip+0x45cd2]        # 4a328 <__cxa_rethrow@CXXABI_1.3>
    4656:	68 62 00 00 00       	push   0x62
    465b:	e9 c0 f9 ff ff       	jmp    4020 <_init+0x20>

0000000000004660 <std::__cxx11::basic_string<char, std::char_traits<char>, std::allocator<char> >::_S_to_string_view(std::basic_string_view<char, std::char_traits<char> >)@plt>:
    4660:	ff 25 ca 5c 04 00    	jmp    QWORD PTR [rip+0x45cca]        # 4a330 <std::__cxx11::basic_string<char, std::char_traits<char>, std::allocator<char> >::_S_to_string_view(std::basic_string_view<char, std::char_traits<char> >)@GLIBCXX_3.4.26>
    4666:	68 63 00 00 00       	push   0x63
    466b:	e9 b0 f9 ff ff       	jmp    4020 <_init+0x20>

0000000000004670 <dlopen@plt>:
    4670:	ff 25 c2 5c 04 00    	jmp    QWORD PTR [rip+0x45cc2]        # 4a338 <dlopen@GLIBC_2.2.5>
    4676:	68 64 00 00 00       	push   0x64
    467b:	e9 a0 f9 ff ff       	jmp    4020 <_init+0x20>

0000000000004680 <fread@plt>:
    4680:	ff 25 ba 5c 04 00    	jmp    QWORD PTR [rip+0x45cba]        # 4a340 <fread@GLIBC_2.2.5>
    4686:	68 65 00 00 00       	push   0x65
    468b:	e9 90 f9 ff ff       	jmp    4020 <_init+0x20>

0000000000004690 <std::ios_base::Init::Init()@plt>:
    4690:	ff 25 b2 5c 04 00    	jmp    QWORD PTR [rip+0x45cb2]        # 4a348 <std::ios_base::Init::Init()@GLIBCXX_3.4>
    4696:	68 66 00 00 00       	push   0x66
    469b:	e9 80 f9 ff ff       	jmp    4020 <_init+0x20>

00000000000046a0 <feof@plt>:
    46a0:	ff 25 aa 5c 04 00    	jmp    QWORD PTR [rip+0x45caa]        # 4a350 <feof@GLIBC_2.2.5>
    46a6:	68 67 00 00 00       	push   0x67
    46ab:	e9 70 f9 ff ff       	jmp    4020 <_init+0x20>

00000000000046b0 <powf@plt>:
    46b0:	ff 25 a2 5c 04 00    	jmp    QWORD PTR [rip+0x45ca2]        # 4a358 <powf@GLIBC_2.27>
    46b6:	68 68 00 00 00       	push   0x68
    46bb:	e9 60 f9 ff ff       	jmp    4020 <_init+0x20>

00000000000046c0 <std::__cxx11::basic_string<char, std::char_traits<char>, std::allocator<char> >::reserve(unsigned long)@plt>:
    46c0:	ff 25 9a 5c 04 00    	jmp    QWORD PTR [rip+0x45c9a]        # 4a360 <std::__cxx11::basic_string<char, std::char_traits<char>, std::allocator<char> >::reserve(unsigned long)@GLIBCXX_3.4.21>
    46c6:	68 69 00 00 00       	push   0x69
    46cb:	e9 50 f9 ff ff       	jmp    4020 <_init+0x20>

00000000000046d0 <std::__cxx11::basic_string<char, std::char_traits<char>, std::allocator<char> >::insert(unsigned long, std::__cxx11::basic_string<char, std::char_traits<char>, std::allocator<char> > const&)@plt>:
    46d0:	ff 25 92 5c 04 00    	jmp    QWORD PTR [rip+0x45c92]        # 4a368 <std::__cxx11::basic_string<char, std::char_traits<char>, std::allocator<char> >::insert(unsigned long, std::__cxx11::basic_string<char, std::char_traits<char>, std::allocator<char> > const&)@GLIBCXX_3.4.21>
    46d6:	68 6a 00 00 00       	push   0x6a
    46db:	e9 40 f9 ff ff       	jmp    4020 <_init+0x20>

00000000000046e0 <std::basic_ifstream<char, std::char_traits<char> >::is_open()@plt>:
    46e0:	ff 25 8a 5c 04 00    	jmp    QWORD PTR [rip+0x45c8a]        # 4a370 <std::basic_ifstream<char, std::char_traits<char> >::is_open()@GLIBCXX_3.4>
    46e6:	68 6b 00 00 00       	push   0x6b
    46eb:	e9 30 f9 ff ff       	jmp    4020 <_init+0x20>

00000000000046f0 <std::basic_ifstream<char, std::char_traits<char> >::basic_ifstream(std::__cxx11::basic_string<char, std::char_traits<char>, std::allocator<char> > const&, std::_Ios_Openmode)@plt>:
    46f0:	ff 25 82 5c 04 00    	jmp    QWORD PTR [rip+0x45c82]        # 4a378 <std::basic_ifstream<char, std::char_traits<char> >::basic_ifstream(std::__cxx11::basic_string<char, std::char_traits<char>, std::allocator<char> > const&, std::_Ios_Openmode)@GLIBCXX_3.4.21>
    46f6:	68 6c 00 00 00       	push   0x6c
    46fb:	e9 20 f9 ff ff       	jmp    4020 <_init+0x20>

0000000000004700 <memmove@plt>:
    4700:	ff 25 7a 5c 04 00    	jmp    QWORD PTR [rip+0x45c7a]        # 4a380 <memmove@GLIBC_2.2.5>
    4706:	68 6d 00 00 00       	push   0x6d
    470b:	e9 10 f9 ff ff       	jmp    4020 <_init+0x20>

0000000000004710 <__cxa_end_catch@plt>:
    4710:	ff 25 72 5c 04 00    	jmp    QWORD PTR [rip+0x45c72]        # 4a388 <__cxa_end_catch@CXXABI_1.3>
    4716:	68 6e 00 00 00       	push   0x6e
    471b:	e9 00 f9 ff ff       	jmp    4020 <_init+0x20>

0000000000004720 <realloc@plt>:
    4720:	ff 25 6a 5c 04 00    	jmp    QWORD PTR [rip+0x45c6a]        # 4a390 <realloc@GLIBC_2.2.5>
    4726:	68 6f 00 00 00       	push   0x6f
    472b:	e9 f0 f8 ff ff       	jmp    4020 <_init+0x20>

0000000000004730 <std::__cxx11::basic_string<char, std::char_traits<char>, std::allocator<char> >::empty() const@plt>:
    4730:	ff 25 62 5c 04 00    	jmp    QWORD PTR [rip+0x45c62]        # 4a398 <std::__cxx11::basic_string<char, std::char_traits<char>, std::allocator<char> >::empty() const@GLIBCXX_3.4.21>
    4736:	68 70 00 00 00       	push   0x70
    473b:	e9 e0 f8 ff ff       	jmp    4020 <_init+0x20>

0000000000004740 <std::__cxx11::basic_string<char, std::char_traits<char>, std::allocator<char> >::basic_string(std::allocator<char> const&)@plt>:
    4740:	ff 25 5a 5c 04 00    	jmp    QWORD PTR [rip+0x45c5a]        # 4a3a0 <std::__cxx11::basic_string<char, std::char_traits<char>, std::allocator<char> >::basic_string(std::allocator<char> const&)@GLIBCXX_3.4.21>
    4746:	68 71 00 00 00       	push   0x71
    474b:	e9 d0 f8 ff ff       	jmp    4020 <_init+0x20>

0000000000004750 <std::ostream::operator<<(int)@plt>:
    4750:	ff 25 52 5c 04 00    	jmp    QWORD PTR [rip+0x45c52]        # 4a3a8 <std::ostream::operator<<(int)@GLIBCXX_3.4>
    4756:	68 72 00 00 00       	push   0x72
    475b:	e9 c0 f8 ff ff       	jmp    4020 <_init+0x20>

0000000000004760 <_Unwind_Resume@plt>:
    4760:	ff 25 4a 5c 04 00    	jmp    QWORD PTR [rip+0x45c4a]        # 4a3b0 <_Unwind_Resume@GCC_3.0>
    4766:	68 73 00 00 00       	push   0x73
    476b:	e9 b0 f8 ff ff       	jmp    4020 <_init+0x20>

0000000000004770 <std::allocator<char>::allocator()@plt>:
    4770:	ff 25 42 5c 04 00    	jmp    QWORD PTR [rip+0x45c42]        # 4a3b8 <std::allocator<char>::allocator()@GLIBCXX_3.4>
    4776:	68 74 00 00 00       	push   0x74
    477b:	e9 a0 f8 ff ff       	jmp    4020 <_init+0x20>

0000000000004780 <std::__cxx11::basic_string<char, std::char_traits<char>, std::allocator<char> >::_M_create(unsigned long&, unsigned long)@plt>:
    4780:	ff 25 3a 5c 04 00    	jmp    QWORD PTR [rip+0x45c3a]        # 4a3c0 <std::__cxx11::basic_string<char, std::char_traits<char>, std::allocator<char> >::_M_create(unsigned long&, unsigned long)@GLIBCXX_3.4.21>
    4786:	68 75 00 00 00       	push   0x75
    478b:	e9 90 f8 ff ff       	jmp    4020 <_init+0x20>

0000000000004790 <std::__cxx11::basic_string<char, std::char_traits<char>, std::allocator<char> >::find_last_not_of(char const*, unsigned long) const@plt>:
    4790:	ff 25 32 5c 04 00    	jmp    QWORD PTR [rip+0x45c32]        # 4a3c8 <std::__cxx11::basic_string<char, std::char_traits<char>, std::allocator<char> >::find_last_not_of(char const*, unsigned long) const@GLIBCXX_3.4.21>
    4796:	68 76 00 00 00       	push   0x76
    479b:	e9 80 f8 ff ff       	jmp    4020 <_init+0x20>

00000000000047a0 <sqrtf@plt>:
    47a0:	ff 25 2a 5c 04 00    	jmp    QWORD PTR [rip+0x45c2a]        # 4a3d0 <sqrtf@GLIBC_2.2.5>
    47a6:	68 77 00 00 00       	push   0x77
    47ab:	e9 70 f8 ff ff       	jmp    4020 <_init+0x20>

00000000000047b0 <snd_pcm_hw_params_any@plt>:
    47b0:	ff 25 22 5c 04 00    	jmp    QWORD PTR [rip+0x45c22]        # 4a3d8 <snd_pcm_hw_params_any@ALSA_0.9>
    47b6:	68 78 00 00 00       	push   0x78
    47bb:	e9 60 f8 ff ff       	jmp    4020 <_init+0x20>

00000000000047c0 <dlsym@plt>:
    47c0:	ff 25 1a 5c 04 00    	jmp    QWORD PTR [rip+0x45c1a]        # 4a3e0 <dlsym@GLIBC_2.2.5>
    47c6:	68 79 00 00 00       	push   0x79
    47cb:	e9 50 f8 ff ff       	jmp    4020 <_init+0x20>

00000000000047d0 <std::__cxx11::basic_string<char, std::char_traits<char>, std::allocator<char> >::basic_string(std::__cxx11::basic_string<char, std::char_traits<char>, std::allocator<char> >::__sv_wrapper, std::allocator<char> const&)@plt>:
    47d0:	ff 25 12 5c 04 00    	jmp    QWORD PTR [rip+0x45c12]        # 4a3e8 <std::__cxx11::basic_string<char, std::char_traits<char>, std::allocator<char> >::basic_string(std::__cxx11::basic_string<char, std::char_traits<char>, std::allocator<char> >::__sv_wrapper, std::allocator<char> const&)@GLIBCXX_3.4.26>
    47d6:	68 7a 00 00 00       	push   0x7a
    47db:	e9 40 f8 ff ff       	jmp    4020 <_init+0x20>

00000000000047e0 <std::__cxx11::basic_string<char, std::char_traits<char>, std::allocator<char> >::append(char const*)@plt>:
    47e0:	ff 25 0a 5c 04 00    	jmp    QWORD PTR [rip+0x45c0a]        # 4a3f0 <std::__cxx11::basic_string<char, std::char_traits<char>, std::allocator<char> >::append(char const*)@GLIBCXX_3.4.21>
    47e6:	68 7b 00 00 00       	push   0x7b
    47eb:	e9 30 f8 ff ff       	jmp    4020 <_init+0x20>

00000000000047f0 <std::__cxx11::basic_string<char, std::char_traits<char>, std::allocator<char> >::append(std::__cxx11::basic_string<char, std::char_traits<char>, std::allocator<char> > const&)@plt>:
    47f0:	ff 25 02 5c 04 00    	jmp    QWORD PTR [rip+0x45c02]        # 4a3f8 <std::__cxx11::basic_string<char, std::char_traits<char>, std::allocator<char> >::append(std::__cxx11::basic_string<char, std::char_traits<char>, std::allocator<char> > const&)@GLIBCXX_3.4.21>
    47f6:	68 7c 00 00 00       	push   0x7c
    47fb:	e9 20 f8 ff ff       	jmp    4020 <_init+0x20>

0000000000004800 <std::__cxx11::basic_string<char, std::char_traits<char>, std::allocator<char> >::_M_capacity(unsigned long)@plt>:
    4800:	ff 25 fa 5b 04 00    	jmp    QWORD PTR [rip+0x45bfa]        # 4a400 <std::__cxx11::basic_string<char, std::char_traits<char>, std::allocator<char> >::_M_capacity(unsigned long)@GLIBCXX_3.4.21>
    4806:	68 7d 00 00 00       	push   0x7d
    480b:	e9 10 f8 ff ff       	jmp    4020 <_init+0x20>

0000000000004810 <std::__cxx11::basic_string<char, std::char_traits<char>, std::allocator<char> >::operator[](unsigned long)@plt>:
    4810:	ff 25 f2 5b 04 00    	jmp    QWORD PTR [rip+0x45bf2]        # 4a408 <std::__cxx11::basic_string<char, std::char_traits<char>, std::allocator<char> >::operator[](unsigned long)@GLIBCXX_3.4.21>
    4816:	68 7e 00 00 00       	push   0x7e
    481b:	e9 00 f8 ff ff       	jmp    4020 <_init+0x20>

Disassembly of section .plt.got:

0000000000004820 <strtol@plt>:
    4820:	ff 25 aa 57 04 00    	jmp    QWORD PTR [rip+0x457aa]        # 49fd0 <strtol@GLIBC_2.2.5>
    4826:	66 90                	xchg   ax,ax

Disassembly of section .text:

0000000000004830 <_start>:
    4830:	f3 0f 1e fa          	endbr64 
    4834:	31 ed                	xor    ebp,ebp
    4836:	49 89 d1             	mov    r9,rdx
    4839:	5e                   	pop    rsi
    483a:	48 89 e2             	mov    rdx,rsp
    483d:	48 83 e4 f0          	and    rsp,0xfffffffffffffff0
    4841:	50                   	push   rax
    4842:	54                   	push   rsp
    4843:	4c 8d 05 e6 4c 03 00 	lea    r8,[rip+0x34ce6]        # 39530 <__libc_csu_fini>
    484a:	48 8d 0d 6f 4c 03 00 	lea    rcx,[rip+0x34c6f]        # 394c0 <__libc_csu_init>
    4851:	48 8d 3d b2 f5 01 00 	lea    rdi,[rip+0x1f5b2]        # 23e0a <main>
    4858:	ff 15 82 57 04 00    	call   QWORD PTR [rip+0x45782]        # 49fe0 <__libc_start_main@GLIBC_2.2.5>
    485e:	f4                   	hlt    
    485f:	90                   	nop

0000000000004860 <deregister_tm_clones>:
    4860:	48 8d 3d a9 5c 04 00 	lea    rdi,[rip+0x45ca9]        # 4a510 <__TMC_END__>
    4867:	48 8d 05 a2 5c 04 00 	lea    rax,[rip+0x45ca2]        # 4a510 <__TMC_END__>
    486e:	48 39 f8             	cmp    rax,rdi
    4871:	74 15                	je     4888 <deregister_tm_clones+0x28>
    4873:	48 8b 05 5e 57 04 00 	mov    rax,QWORD PTR [rip+0x4575e]        # 49fd8 <_ITM_deregisterTMCloneTable>
    487a:	48 85 c0             	test   rax,rax
    487d:	74 09                	je     4888 <deregister_tm_clones+0x28>
    487f:	ff e0                	jmp    rax
    4881:	0f 1f 80 00 00 00 00 	nop    DWORD PTR [rax+0x0]
    4888:	c3                   	ret    
    4889:	0f 1f 80 00 00 00 00 	nop    DWORD PTR [rax+0x0]

0000000000004890 <register_tm_clones>:
    4890:	48 8d 3d 79 5c 04 00 	lea    rdi,[rip+0x45c79]        # 4a510 <__TMC_END__>
    4897:	48 8d 35 72 5c 04 00 	lea    rsi,[rip+0x45c72]        # 4a510 <__TMC_END__>
    489e:	48 29 fe             	sub    rsi,rdi
    48a1:	48 89 f0             	mov    rax,rsi
    48a4:	48 c1 ee 3f          	shr    rsi,0x3f
    48a8:	48 c1 f8 03          	sar    rax,0x3
    48ac:	48 01 c6             	add    rsi,rax
    48af:	48 d1 fe             	sar    rsi,1
    48b2:	74 14                	je     48c8 <register_tm_clones+0x38>
    48b4:	48 8b 05 35 57 04 00 	mov    rax,QWORD PTR [rip+0x45735]        # 49ff0 <_ITM_registerTMCloneTable>
    48bb:	48 85 c0             	test   rax,rax
    48be:	74 08                	je     48c8 <register_tm_clones+0x38>
    48c0:	ff e0                	jmp    rax
    48c2:	66 0f 1f 44 00 00    	nop    WORD PTR [rax+rax*1+0x0]
    48c8:	c3                   	ret    
    48c9:	0f 1f 80 00 00 00 00 	nop    DWORD PTR [rax+0x0]

00000000000048d0 <__do_global_dtors_aux>:
    48d0:	f3 0f 1e fa          	endbr64 
    48d4:	80 3d 95 5e 04 00 00 	cmp    BYTE PTR [rip+0x45e95],0x0        # 4a770 <completed.0>
    48db:	75 33                	jne    4910 <__do_global_dtors_aux+0x40>
    48dd:	55                   	push   rbp
    48de:	48 83 3d d2 56 04 00 00 	cmp    QWORD PTR [rip+0x456d2],0x0        # 49fb8 <__cxa_finalize@GLIBC_2.2.5>
    48e6:	48 89 e5             	mov    rbp,rsp
    48e9:	74 0d                	je     48f8 <__do_global_dtors_aux+0x28>
    48eb:	48 8b 3d 36 5b 04 00 	mov    rdi,QWORD PTR [rip+0x45b36]        # 4a428 <__dso_handle>
    48f2:	ff 15 c0 56 04 00    	call   QWORD PTR [rip+0x456c0]        # 49fb8 <__cxa_finalize@GLIBC_2.2.5>
    48f8:	e8 63 ff ff ff       	call   4860 <deregister_tm_clones>
    48fd:	c6 05 6c 5e 04 00 01 	mov    BYTE PTR [rip+0x45e6c],0x1        # 4a770 <completed.0>
    4904:	5d                   	pop    rbp
    4905:	c3                   	ret    
    4906:	66 2e 0f 1f 84 00 00 00 00 00 	cs nop WORD PTR [rax+rax*1+0x0]
    4910:	c3                   	ret    
    4911:	66 66 2e 0f 1f 84 00 00 00 00 00 	data16 cs nop WORD PTR [rax+rax*1+0x0]
    491c:	0f 1f 40 00          	nop    DWORD PTR [rax+0x0]

0000000000004920 <frame_dummy>:
    4920:	f3 0f 1e fa          	endbr64 
    4924:	e9 67 ff ff ff       	jmp    4890 <register_tm_clones>
    4929:	0f 1f 80 00 00 00 00 	nop    DWORD PTR [rax+0x0]

0000000000004930 <maxofthree_asm>:
    4930:	39 f7                	cmp    edi,esi
    4932:	0f 4c fe             	cmovl  edi,esi
    4935:	39 d7                	cmp    edi,edx
    4937:	0f 4c fa             	cmovl  edi,edx
    493a:	89 f8                	mov    eax,edi
    493c:	c3                   	ret    

000000000000493d <test_asm>:
    493d:	48 83 ec 14          	sub    rsp,0x14
    4941:	41 ba 09 00 00 00    	mov    r10d,0x9
    4947:	66 41 bb 78 0a       	mov    r11w,0xa78

000000000000494c <loop>:
    494c:	66 46 89 1c 54       	mov    WORD PTR [rsp+r10*2],r11w
    4951:	49 83 ea 01          	sub    r10,0x1
    4955:	75 f5                	jne    494c <loop>
    4957:	b8 01 00 00 00       	mov    eax,0x1
    495c:	bf 01 00 00 00       	mov    edi,0x1
    4961:	48 89 e6             	mov    rsi,rsp
    4964:	ba 14 00 00 00       	mov    edx,0x14
    4969:	0f 05                	syscall 
    496b:	48 83 c4 14          	add    rsp,0x14
    496f:	b8 00 00 00 00       	mov    eax,0x0
    4974:	c3                   	ret    

0000000000004975 <stbi__sse2_available()>:
    4975:	55                   	push   rbp
    4976:	48 89 e5             	mov    rbp,rsp
    4979:	b8 01 00 00 00       	mov    eax,0x1
    497e:	5d                   	pop    rbp
    497f:	c3                   	ret    

0000000000004980 <stbi__start_mem(stbi__context*, unsigned char const*, int)>:
    4980:	55                   	push   rbp
    4981:	48 89 e5             	mov    rbp,rsp
    4984:	48 89 7d f8          	mov    QWORD PTR [rbp-0x8],rdi
    4988:	48 89 75 f0          	mov    QWORD PTR [rbp-0x10],rsi
    498c:	89 55 ec             	mov    DWORD PTR [rbp-0x14],edx
    498f:	48 8b 45 f8          	mov    rax,QWORD PTR [rbp-0x8]
    4993:	48 c7 40 10 00 00 00 00 	mov    QWORD PTR [rax+0x10],0x0
    499b:	48 8b 45 f8          	mov    rax,QWORD PTR [rbp-0x8]
    499f:	c7 40 30 00 00 00 00 	mov    DWORD PTR [rax+0x30],0x0
    49a6:	48 8b 45 f8          	mov    rax,QWORD PTR [rbp-0x8]
    49aa:	48 8b 55 f0          	mov    rdx,QWORD PTR [rbp-0x10]
    49ae:	48 89 90 c8 00 00 00 	mov    QWORD PTR [rax+0xc8],rdx
    49b5:	48 8b 45 f8          	mov    rax,QWORD PTR [rbp-0x8]
    49b9:	48 8b 90 c8 00 00 00 	mov    rdx,QWORD PTR [rax+0xc8]
    49c0:	48 8b 45 f8          	mov    rax,QWORD PTR [rbp-0x8]
    49c4:	48 89 90 b8 00 00 00 	mov    QWORD PTR [rax+0xb8],rdx
    49cb:	8b 45 ec             	mov    eax,DWORD PTR [rbp-0x14]
    49ce:	48 63 d0             	movsxd rdx,eax
    49d1:	48 8b 45 f0          	mov    rax,QWORD PTR [rbp-0x10]
    49d5:	48 01 c2             	add    rdx,rax
    49d8:	48 8b 45 f8          	mov    rax,QWORD PTR [rbp-0x8]
    49dc:	48 89 90 d0 00 00 00 	mov    QWORD PTR [rax+0xd0],rdx
    49e3:	48 8b 45 f8          	mov    rax,QWORD PTR [rbp-0x8]
    49e7:	48 8b 90 d0 00 00 00 	mov    rdx,QWORD PTR [rax+0xd0]
    49ee:	48 8b 45 f8          	mov    rax,QWORD PTR [rbp-0x8]
    49f2:	48 89 90 c0 00 00 00 	mov    QWORD PTR [rax+0xc0],rdx
    49f9:	90                   	nop
    49fa:	5d                   	pop    rbp
    49fb:	c3                   	ret    

00000000000049fc <stbi__start_callbacks(stbi__context*, stbi_io_callbacks*, void*)>:
    49fc:	55                   	push   rbp
    49fd:	48 89 e5             	mov    rbp,rsp
    4a00:	48 83 ec 20          	sub    rsp,0x20
    4a04:	48 89 7d f8          	mov    QWORD PTR [rbp-0x8],rdi
    4a08:	48 89 75 f0          	mov    QWORD PTR [rbp-0x10],rsi
    4a0c:	48 89 55 e8          	mov    QWORD PTR [rbp-0x18],rdx
    4a10:	48 8b 4d f8          	mov    rcx,QWORD PTR [rbp-0x8]
    4a14:	48 8b 75 f0          	mov    rsi,QWORD PTR [rbp-0x10]
    4a18:	48 8b 06             	mov    rax,QWORD PTR [rsi]
    4a1b:	48 8b 56 08          	mov    rdx,QWORD PTR [rsi+0x8]
    4a1f:	48 89 41 10          	mov    QWORD PTR [rcx+0x10],rax
    4a23:	48 89 51 18          	mov    QWORD PTR [rcx+0x18],rdx
    4a27:	48 8b 46 10          	mov    rax,QWORD PTR [rsi+0x10]
    4a2b:	48 89 41 20          	mov    QWORD PTR [rcx+0x20],rax
    4a2f:	48 8b 45 f8          	mov    rax,QWORD PTR [rbp-0x8]
    4a33:	48 8b 55 e8          	mov    rdx,QWORD PTR [rbp-0x18]
    4a37:	48 89 50 28          	mov    QWORD PTR [rax+0x28],rdx
    4a3b:	48 8b 45 f8          	mov    rax,QWORD PTR [rbp-0x8]
    4a3f:	c7 40 34 80 00 00 00 	mov    DWORD PTR [rax+0x34],0x80
    4a46:	48 8b 45 f8          	mov    rax,QWORD PTR [rbp-0x8]
    4a4a:	c7 40 30 01 00 00 00 	mov    DWORD PTR [rax+0x30],0x1
    4a51:	48 8b 45 f8          	mov    rax,QWORD PTR [rbp-0x8]
    4a55:	48 8d 50 38          	lea    rdx,[rax+0x38]
    4a59:	48 8b 45 f8          	mov    rax,QWORD PTR [rbp-0x8]
    4a5d:	48 89 90 c8 00 00 00 	mov    QWORD PTR [rax+0xc8],rdx
    4a64:	48 8b 45 f8          	mov    rax,QWORD PTR [rbp-0x8]
    4a68:	48 89 c7             	mov    rdi,rax
    4a6b:	e8 f2 19 00 00       	call   6462 <stbi__refill_buffer(stbi__context*)>
    4a70:	48 8b 45 f8          	mov    rax,QWORD PTR [rbp-0x8]
    4a74:	48 8b 90 c0 00 00 00 	mov    rdx,QWORD PTR [rax+0xc0]
    4a7b:	48 8b 45 f8          	mov    rax,QWORD PTR [rbp-0x8]
    4a7f:	48 89 90 d0 00 00 00 	mov    QWORD PTR [rax+0xd0],rdx
    4a86:	90                   	nop
    4a87:	c9                   	leave  
    4a88:	c3                   	ret    

0000000000004a89 <stbi__stdio_read(void*, char*, int)>:
    4a89:	55                   	push   rbp
    4a8a:	48 89 e5             	mov    rbp,rsp
    4a8d:	48 83 ec 20          	sub    rsp,0x20
    4a91:	48 89 7d f8          	mov    QWORD PTR [rbp-0x8],rdi
    4a95:	48 89 75 f0          	mov    QWORD PTR [rbp-0x10],rsi
    4a99:	89 55 ec             	mov    DWORD PTR [rbp-0x14],edx
    4a9c:	8b 45 ec             	mov    eax,DWORD PTR [rbp-0x14]
    4a9f:	48 63 d0             	movsxd rdx,eax
    4aa2:	48 8b 4d f8          	mov    rcx,QWORD PTR [rbp-0x8]
    4aa6:	48 8b 45 f0          	mov    rax,QWORD PTR [rbp-0x10]
    4aaa:	be 01 00 00 00       	mov    esi,0x1
    4aaf:	48 89 c7             	mov    rdi,rax
    4ab2:	e8 c9 fb ff ff       	call   4680 <fread@plt>
    4ab7:	c9                   	leave  
    4ab8:	c3                   	ret    

0000000000004ab9 <stbi__stdio_skip(void*, int)>:
    4ab9:	55                   	push   rbp
    4aba:	48 89 e5             	mov    rbp,rsp
    4abd:	48 83 ec 10          	sub    rsp,0x10
    4ac1:	48 89 7d f8          	mov    QWORD PTR [rbp-0x8],rdi
    4ac5:	89 75 f4             	mov    DWORD PTR [rbp-0xc],esi
    4ac8:	8b 45 f4             	mov    eax,DWORD PTR [rbp-0xc]
    4acb:	48 63 c8             	movsxd rcx,eax
    4ace:	48 8b 45 f8          	mov    rax,QWORD PTR [rbp-0x8]
    4ad2:	ba 01 00 00 00       	mov    edx,0x1
    4ad7:	48 89 ce             	mov    rsi,rcx
    4ada:	48 89 c7             	mov    rdi,rax
    4add:	e8 ee f9 ff ff       	call   44d0 <fseek@plt>
    4ae2:	90                   	nop
    4ae3:	c9                   	leave  
    4ae4:	c3                   	ret    

0000000000004ae5 <stbi__stdio_eof(void*)>:
    4ae5:	55                   	push   rbp
    4ae6:	48 89 e5             	mov    rbp,rsp
    4ae9:	48 83 ec 10          	sub    rsp,0x10
    4aed:	48 89 7d f8          	mov    QWORD PTR [rbp-0x8],rdi
    4af1:	48 8b 45 f8          	mov    rax,QWORD PTR [rbp-0x8]
    4af5:	48 89 c7             	mov    rdi,rax
    4af8:	e8 a3 fb ff ff       	call   46a0 <feof@plt>
    4afd:	c9                   	leave  
    4afe:	c3                   	ret    

0000000000004aff <stbi__start_file(stbi__context*, _IO_FILE*)>:
    4aff:	55                   	push   rbp
    4b00:	48 89 e5             	mov    rbp,rsp
    4b03:	48 83 ec 10          	sub    rsp,0x10
    4b07:	48 89 7d f8          	mov    QWORD PTR [rbp-0x8],rdi
    4b0b:	48 89 75 f0          	mov    QWORD PTR [rbp-0x10],rsi
    4b0f:	48 8b 55 f0          	mov    rdx,QWORD PTR [rbp-0x10]
    4b13:	48 8b 45 f8          	mov    rax,QWORD PTR [rbp-0x8]
    4b17:	48 8d 0d d2 59 04 00 	lea    rcx,[rip+0x459d2]        # 4a4f0 <stbi__stdio_callbacks>
    4b1e:	48 89 ce             	mov    rsi,rcx
    4b21:	48 89 c7             	mov    rdi,rax
    4b24:	e8 d3 fe ff ff       	call   49fc <stbi__start_callbacks(stbi__context*, stbi_io_callbacks*, void*)>
    4b29:	90                   	nop
    4b2a:	c9                   	leave  
    4b2b:	c3                   	ret    

0000000000004b2c <stbi__rewind(stbi__context*)>:
    4b2c:	55                   	push   rbp
    4b2d:	48 89 e5             	mov    rbp,rsp
    4b30:	48 89 7d f8          	mov    QWORD PTR [rbp-0x8],rdi
    4b34:	48 8b 45 f8          	mov    rax,QWORD PTR [rbp-0x8]
    4b38:	48 8b 90 c8 00 00 00 	mov    rdx,QWORD PTR [rax+0xc8]
    4b3f:	48 8b 45 f8          	mov    rax,QWORD PTR [rbp-0x8]
    4b43:	48 89 90 b8 00 00 00 	mov    QWORD PTR [rax+0xb8],rdx
    4b4a:	48 8b 45 f8          	mov    rax,QWORD PTR [rbp-0x8]
    4b4e:	48 8b 90 d0 00 00 00 	mov    rdx,QWORD PTR [rax+0xd0]
    4b55:	48 8b 45 f8          	mov    rax,QWORD PTR [rbp-0x8]
    4b59:	48 89 90 c0 00 00 00 	mov    QWORD PTR [rax+0xc0],rdx
    4b60:	90                   	nop
    4b61:	5d                   	pop    rbp
    4b62:	c3                   	ret    

0000000000004b63 <stbi_failure_reason>:
    4b63:	55                   	push   rbp
    4b64:	48 89 e5             	mov    rbp,rsp
    4b67:	64 48 8b 04 25 f0 ff ff ff 	mov    rax,QWORD PTR fs:0xfffffffffffffff0
    4b70:	5d                   	pop    rbp
    4b71:	c3                   	ret    

0000000000004b72 <stbi__err(char const*)>:
    4b72:	55                   	push   rbp
    4b73:	48 89 e5             	mov    rbp,rsp
    4b76:	48 89 7d f8          	mov    QWORD PTR [rbp-0x8],rdi
    4b7a:	48 8b 45 f8          	mov    rax,QWORD PTR [rbp-0x8]
    4b7e:	64 48 89 04 25 f0 ff ff ff 	mov    QWORD PTR fs:0xfffffffffffffff0,rax
    4b87:	b8 00 00 00 00       	mov    eax,0x0
    4b8c:	5d                   	pop    rbp
    4b8d:	c3                   	ret    

0000000000004b8e <stbi__malloc(unsigned long)>:
    4b8e:	55                   	push   rbp
    4b8f:	48 89 e5             	mov    rbp,rsp
    4b92:	48 83 ec 10          	sub    rsp,0x10
    4b96:	48 89 7d f8          	mov    QWORD PTR [rbp-0x8],rdi
    4b9a:	48 8b 45 f8          	mov    rax,QWORD PTR [rbp-0x8]
    4b9e:	48 89 c7             	mov    rdi,rax
    4ba1:	e8 2a fa ff ff       	call   45d0 <malloc@plt>
    4ba6:	c9                   	leave  
    4ba7:	c3                   	ret    

0000000000004ba8 <stbi__addsizes_valid(int, int)>:
    4ba8:	55                   	push   rbp
    4ba9:	48 89 e5             	mov    rbp,rsp
    4bac:	89 7d fc             	mov    DWORD PTR [rbp-0x4],edi
    4baf:	89 75 f8             	mov    DWORD PTR [rbp-0x8],esi
    4bb2:	83 7d f8 00          	cmp    DWORD PTR [rbp-0x8],0x0
    4bb6:	79 07                	jns    4bbf <stbi__addsizes_valid(int, int)+0x17>
    4bb8:	b8 00 00 00 00       	mov    eax,0x0
    4bbd:	eb 11                	jmp    4bd0 <stbi__addsizes_valid(int, int)+0x28>
    4bbf:	b8 ff ff ff 7f       	mov    eax,0x7fffffff
    4bc4:	2b 45 f8             	sub    eax,DWORD PTR [rbp-0x8]
    4bc7:	39 45 fc             	cmp    DWORD PTR [rbp-0x4],eax
    4bca:	0f 9e c0             	setle  al
    4bcd:	0f b6 c0             	movzx  eax,al
    4bd0:	5d                   	pop    rbp
    4bd1:	c3                   	ret    

0000000000004bd2 <stbi__mul2sizes_valid(int, int)>:
    4bd2:	55                   	push   rbp
    4bd3:	48 89 e5             	mov    rbp,rsp
    4bd6:	89 7d fc             	mov    DWORD PTR [rbp-0x4],edi
    4bd9:	89 75 f8             	mov    DWORD PTR [rbp-0x8],esi
    4bdc:	83 7d fc 00          	cmp    DWORD PTR [rbp-0x4],0x0
    4be0:	78 06                	js     4be8 <stbi__mul2sizes_valid(int, int)+0x16>
    4be2:	83 7d f8 00          	cmp    DWORD PTR [rbp-0x8],0x0
    4be6:	79 07                	jns    4bef <stbi__mul2sizes_valid(int, int)+0x1d>
    4be8:	b8 00 00 00 00       	mov    eax,0x0
    4bed:	eb 1f                	jmp    4c0e <stbi__mul2sizes_valid(int, int)+0x3c>
    4bef:	83 7d f8 00          	cmp    DWORD PTR [rbp-0x8],0x0
    4bf3:	75 07                	jne    4bfc <stbi__mul2sizes_valid(int, int)+0x2a>
    4bf5:	b8 01 00 00 00       	mov    eax,0x1
    4bfa:	eb 12                	jmp    4c0e <stbi__mul2sizes_valid(int, int)+0x3c>
    4bfc:	b8 ff ff ff 7f       	mov    eax,0x7fffffff
    4c01:	99                   	cdq    
    4c02:	f7 7d f8             	idiv   DWORD PTR [rbp-0x8]
    4c05:	39 45 fc             	cmp    DWORD PTR [rbp-0x4],eax
    4c08:	0f 9e c0             	setle  al
    4c0b:	0f b6 c0             	movzx  eax,al
    4c0e:	5d                   	pop    rbp
    4c0f:	c3                   	ret    

0000000000004c10 <stbi__mad2sizes_valid(int, int, int)>:
    4c10:	55                   	push   rbp
    4c11:	48 89 e5             	mov    rbp,rsp
    4c14:	48 83 ec 10          	sub    rsp,0x10
    4c18:	89 7d fc             	mov    DWORD PTR [rbp-0x4],edi
    4c1b:	89 75 f8             	mov    DWORD PTR [rbp-0x8],esi
    4c1e:	89 55 f4             	mov    DWORD PTR [rbp-0xc],edx
    4c21:	8b 55 f8             	mov    edx,DWORD PTR [rbp-0x8]
    4c24:	8b 45 fc             	mov    eax,DWORD PTR [rbp-0x4]
    4c27:	89 d6                	mov    esi,edx
    4c29:	89 c7                	mov    edi,eax
    4c2b:	e8 a2 ff ff ff       	call   4bd2 <stbi__mul2sizes_valid(int, int)>
    4c30:	85 c0                	test   eax,eax
    4c32:	74 1e                	je     4c52 <stbi__mad2sizes_valid(int, int, int)+0x42>
    4c34:	8b 45 fc             	mov    eax,DWORD PTR [rbp-0x4]
    4c37:	0f af 45 f8          	imul   eax,DWORD PTR [rbp-0x8]
    4c3b:	8b 55 f4             	mov    edx,DWORD PTR [rbp-0xc]
    4c3e:	89 d6                	mov    esi,edx
    4c40:	89 c7                	mov    edi,eax
    4c42:	e8 61 ff ff ff       	call   4ba8 <stbi__addsizes_valid(int, int)>
    4c47:	85 c0                	test   eax,eax
    4c49:	74 07                	je     4c52 <stbi__mad2sizes_valid(int, int, int)+0x42>
    4c4b:	b8 01 00 00 00       	mov    eax,0x1
    4c50:	eb 05                	jmp    4c57 <stbi__mad2sizes_valid(int, int, int)+0x47>
    4c52:	b8 00 00 00 00       	mov    eax,0x0
    4c57:	0f b6 c0             	movzx  eax,al
    4c5a:	c9                   	leave  
    4c5b:	c3                   	ret    

0000000000004c5c <stbi__mad3sizes_valid(int, int, int, int)>:
    4c5c:	55                   	push   rbp
    4c5d:	48 89 e5             	mov    rbp,rsp
    4c60:	48 83 ec 10          	sub    rsp,0x10
    4c64:	89 7d fc             	mov    DWORD PTR [rbp-0x4],edi
    4c67:	89 75 f8             	mov    DWORD PTR [rbp-0x8],esi
    4c6a:	89 55 f4             	mov    DWORD PTR [rbp-0xc],edx
    4c6d:	89 4d f0             	mov    DWORD PTR [rbp-0x10],ecx
    4c70:	8b 55 f8             	mov    edx,DWORD PTR [rbp-0x8]
    4c73:	8b 45 fc             	mov    eax,DWORD PTR [rbp-0x4]
    4c76:	89 d6                	mov    esi,edx
    4c78:	89 c7                	mov    edi,eax
    4c7a:	e8 53 ff ff ff       	call   4bd2 <stbi__mul2sizes_valid(int, int)>
    4c7f:	85 c0                	test   eax,eax
    4c81:	74 39                	je     4cbc <stbi__mad3sizes_valid(int, int, int, int)+0x60>
    4c83:	8b 45 fc             	mov    eax,DWORD PTR [rbp-0x4]
    4c86:	0f af 45 f8          	imul   eax,DWORD PTR [rbp-0x8]
    4c8a:	8b 55 f4             	mov    edx,DWORD PTR [rbp-0xc]
    4c8d:	89 d6                	mov    esi,edx
    4c8f:	89 c7                	mov    edi,eax
    4c91:	e8 3c ff ff ff       	call   4bd2 <stbi__mul2sizes_valid(int, int)>
    4c96:	85 c0                	test   eax,eax
    4c98:	74 22                	je     4cbc <stbi__mad3sizes_valid(int, int, int, int)+0x60>
    4c9a:	8b 45 fc             	mov    eax,DWORD PTR [rbp-0x4]
    4c9d:	0f af 45 f8          	imul   eax,DWORD PTR [rbp-0x8]
    4ca1:	0f af 45 f4          	imul   eax,DWORD PTR [rbp-0xc]
    4ca5:	8b 55 f0             	mov    edx,DWORD PTR [rbp-0x10]
    4ca8:	89 d6                	mov    esi,edx
    4caa:	89 c7                	mov    edi,eax
    4cac:	e8 f7 fe ff ff       	call   4ba8 <stbi__addsizes_valid(int, int)>
    4cb1:	85 c0                	test   eax,eax
    4cb3:	74 07                	je     4cbc <stbi__mad3sizes_valid(int, int, int, int)+0x60>
    4cb5:	b8 01 00 00 00       	mov    eax,0x1
    4cba:	eb 05                	jmp    4cc1 <stbi__mad3sizes_valid(int, int, int, int)+0x65>
    4cbc:	b8 00 00 00 00       	mov    eax,0x0
    4cc1:	0f b6 c0             	movzx  eax,al
    4cc4:	c9                   	leave  
    4cc5:	c3                   	ret    

0000000000004cc6 <stbi__mad4sizes_valid(int, int, int, int, int)>:
    4cc6:	55                   	push   rbp
    4cc7:	48 89 e5             	mov    rbp,rsp
    4cca:	48 83 ec 18          	sub    rsp,0x18
    4cce:	89 7d fc             	mov    DWORD PTR [rbp-0x4],edi
    4cd1:	89 75 f8             	mov    DWORD PTR [rbp-0x8],esi
    4cd4:	89 55 f4             	mov    DWORD PTR [rbp-0xc],edx
    4cd7:	89 4d f0             	mov    DWORD PTR [rbp-0x10],ecx
    4cda:	44 89 45 ec          	mov    DWORD PTR [rbp-0x14],r8d
    4cde:	8b 55 f8             	mov    edx,DWORD PTR [rbp-0x8]
    4ce1:	8b 45 fc             	mov    eax,DWORD PTR [rbp-0x4]
    4ce4:	89 d6                	mov    esi,edx
    4ce6:	89 c7                	mov    edi,eax
    4ce8:	e8 e5 fe ff ff       	call   4bd2 <stbi__mul2sizes_valid(int, int)>
    4ced:	85 c0                	test   eax,eax
    4cef:	74 58                	je     4d49 <stbi__mad4sizes_valid(int, int, int, int, int)+0x83>
    4cf1:	8b 45 fc             	mov    eax,DWORD PTR [rbp-0x4]
    4cf4:	0f af 45 f8          	imul   eax,DWORD PTR [rbp-0x8]
    4cf8:	8b 55 f4             	mov    edx,DWORD PTR [rbp-0xc]
    4cfb:	89 d6                	mov    esi,edx
    4cfd:	89 c7                	mov    edi,eax
    4cff:	e8 ce fe ff ff       	call   4bd2 <stbi__mul2sizes_valid(int, int)>
    4d04:	85 c0                	test   eax,eax
    4d06:	74 41                	je     4d49 <stbi__mad4sizes_valid(int, int, int, int, int)+0x83>
    4d08:	8b 45 fc             	mov    eax,DWORD PTR [rbp-0x4]
    4d0b:	0f af 45 f8          	imul   eax,DWORD PTR [rbp-0x8]
    4d0f:	0f af 45 f4          	imul   eax,DWORD PTR [rbp-0xc]
    4d13:	8b 55 f0             	mov    edx,DWORD PTR [rbp-0x10]
    4d16:	89 d6                	mov    esi,edx
    4d18:	89 c7                	mov    edi,eax
    4d1a:	e8 b3 fe ff ff       	call   4bd2 <stbi__mul2sizes_valid(int, int)>
    4d1f:	85 c0                	test   eax,eax
    4d21:	74 26                	je     4d49 <stbi__mad4sizes_valid(int, int, int, int, int)+0x83>
    4d23:	8b 45 fc             	mov    eax,DWORD PTR [rbp-0x4]
    4d26:	0f af 45 f8          	imul   eax,DWORD PTR [rbp-0x8]
    4d2a:	0f af 45 f4          	imul   eax,DWORD PTR [rbp-0xc]
    4d2e:	0f af 45 f0          	imul   eax,DWORD PTR [rbp-0x10]
    4d32:	8b 55 ec             	mov    edx,DWORD PTR [rbp-0x14]
    4d35:	89 d6                	mov    esi,edx
    4d37:	89 c7                	mov    edi,eax
    4d39:	e8 6a fe ff ff       	call   4ba8 <stbi__addsizes_valid(int, int)>
    4d3e:	85 c0                	test   eax,eax
    4d40:	74 07                	je     4d49 <stbi__mad4sizes_valid(int, int, int, int, int)+0x83>
    4d42:	b8 01 00 00 00       	mov    eax,0x1
    4d47:	eb 05                	jmp    4d4e <stbi__mad4sizes_valid(int, int, int, int, int)+0x88>
    4d49:	b8 00 00 00 00       	mov    eax,0x0
    4d4e:	0f b6 c0             	movzx  eax,al
    4d51:	c9                   	leave  
    4d52:	c3                   	ret    

0000000000004d53 <stbi__malloc_mad2(int, int, int)>:
    4d53:	55                   	push   rbp
    4d54:	48 89 e5             	mov    rbp,rsp
    4d57:	48 83 ec 10          	sub    rsp,0x10
    4d5b:	89 7d fc             	mov    DWORD PTR [rbp-0x4],edi
    4d5e:	89 75 f8             	mov    DWORD PTR [rbp-0x8],esi
    4d61:	89 55 f4             	mov    DWORD PTR [rbp-0xc],edx
    4d64:	8b 55 f4             	mov    edx,DWORD PTR [rbp-0xc]
    4d67:	8b 4d f8             	mov    ecx,DWORD PTR [rbp-0x8]
    4d6a:	8b 45 fc             	mov    eax,DWORD PTR [rbp-0x4]
    4d6d:	89 ce                	mov    esi,ecx
    4d6f:	89 c7                	mov    edi,eax
    4d71:	e8 9a fe ff ff       	call   4c10 <stbi__mad2sizes_valid(int, int, int)>
    4d76:	85 c0                	test   eax,eax
    4d78:	0f 94 c0             	sete   al
    4d7b:	84 c0                	test   al,al
    4d7d:	74 07                	je     4d86 <stbi__malloc_mad2(int, int, int)+0x33>
    4d7f:	b8 00 00 00 00       	mov    eax,0x0
    4d84:	eb 19                	jmp    4d9f <stbi__malloc_mad2(int, int, int)+0x4c>
    4d86:	8b 45 fc             	mov    eax,DWORD PTR [rbp-0x4]
    4d89:	0f af 45 f8          	imul   eax,DWORD PTR [rbp-0x8]
    4d8d:	89 c2                	mov    edx,eax
    4d8f:	8b 45 f4             	mov    eax,DWORD PTR [rbp-0xc]
    4d92:	01 d0                	add    eax,edx
    4d94:	48 98                	cdqe   
    4d96:	48 89 c7             	mov    rdi,rax
    4d99:	e8 f0 fd ff ff       	call   4b8e <stbi__malloc(unsigned long)>
    4d9e:	90                   	nop
    4d9f:	c9                   	leave  
    4da0:	c3                   	ret    

0000000000004da1 <stbi__malloc_mad3(int, int, int, int)>:
    4da1:	55                   	push   rbp
    4da2:	48 89 e5             	mov    rbp,rsp
    4da5:	48 83 ec 10          	sub    rsp,0x10
    4da9:	89 7d fc             	mov    DWORD PTR [rbp-0x4],edi
    4dac:	89 75 f8             	mov    DWORD PTR [rbp-0x8],esi
    4daf:	89 55 f4             	mov    DWORD PTR [rbp-0xc],edx
    4db2:	89 4d f0             	mov    DWORD PTR [rbp-0x10],ecx
    4db5:	8b 4d f0             	mov    ecx,DWORD PTR [rbp-0x10]
    4db8:	8b 55 f4             	mov    edx,DWORD PTR [rbp-0xc]
    4dbb:	8b 75 f8             	mov    esi,DWORD PTR [rbp-0x8]
    4dbe:	8b 45 fc             	mov    eax,DWORD PTR [rbp-0x4]
    4dc1:	89 c7                	mov    edi,eax
    4dc3:	e8 94 fe ff ff       	call   4c5c <stbi__mad3sizes_valid(int, int, int, int)>
    4dc8:	85 c0                	test   eax,eax
    4dca:	0f 94 c0             	sete   al
    4dcd:	84 c0                	test   al,al
    4dcf:	74 07                	je     4dd8 <stbi__malloc_mad3(int, int, int, int)+0x37>
    4dd1:	b8 00 00 00 00       	mov    eax,0x0
    4dd6:	eb 1d                	jmp    4df5 <stbi__malloc_mad3(int, int, int, int)+0x54>
    4dd8:	8b 45 fc             	mov    eax,DWORD PTR [rbp-0x4]
    4ddb:	0f af 45 f8          	imul   eax,DWORD PTR [rbp-0x8]
    4ddf:	0f af 45 f4          	imul   eax,DWORD PTR [rbp-0xc]
    4de3:	89 c2                	mov    edx,eax
    4de5:	8b 45 f0             	mov    eax,DWORD PTR [rbp-0x10]
    4de8:	01 d0                	add    eax,edx
    4dea:	48 98                	cdqe   
    4dec:	48 89 c7             	mov    rdi,rax
    4def:	e8 9a fd ff ff       	call   4b8e <stbi__malloc(unsigned long)>
    4df4:	90                   	nop
    4df5:	c9                   	leave  
    4df6:	c3                   	ret    

0000000000004df7 <stbi__malloc_mad4(int, int, int, int, int)>:
    4df7:	55                   	push   rbp
    4df8:	48 89 e5             	mov    rbp,rsp
    4dfb:	48 83 ec 20          	sub    rsp,0x20
    4dff:	89 7d fc             	mov    DWORD PTR [rbp-0x4],edi
    4e02:	89 75 f8             	mov    DWORD PTR [rbp-0x8],esi
    4e05:	89 55 f4             	mov    DWORD PTR [rbp-0xc],edx
    4e08:	89 4d f0             	mov    DWORD PTR [rbp-0x10],ecx
    4e0b:	44 89 45 ec          	mov    DWORD PTR [rbp-0x14],r8d
    4e0f:	8b 7d ec             	mov    edi,DWORD PTR [rbp-0x14]
    4e12:	8b 4d f0             	mov    ecx,DWORD PTR [rbp-0x10]
    4e15:	8b 55 f4             	mov    edx,DWORD PTR [rbp-0xc]
    4e18:	8b 75 f8             	mov    esi,DWORD PTR [rbp-0x8]
    4e1b:	8b 45 fc             	mov    eax,DWORD PTR [rbp-0x4]
    4e1e:	41 89 f8             	mov    r8d,edi
    4e21:	89 c7                	mov    edi,eax
    4e23:	e8 9e fe ff ff       	call   4cc6 <stbi__mad4sizes_valid(int, int, int, int, int)>
    4e28:	85 c0                	test   eax,eax
    4e2a:	0f 94 c0             	sete   al
    4e2d:	84 c0                	test   al,al
    4e2f:	74 07                	je     4e38 <stbi__malloc_mad4(int, int, int, int, int)+0x41>
    4e31:	b8 00 00 00 00       	mov    eax,0x0
    4e36:	eb 21                	jmp    4e59 <stbi__malloc_mad4(int, int, int, int, int)+0x62>
    4e38:	8b 45 fc             	mov    eax,DWORD PTR [rbp-0x4]
    4e3b:	0f af 45 f8          	imul   eax,DWORD PTR [rbp-0x8]
    4e3f:	0f af 45 f4          	imul   eax,DWORD PTR [rbp-0xc]
    4e43:	0f af 45 f0          	imul   eax,DWORD PTR [rbp-0x10]
    4e47:	89 c2                	mov    edx,eax
    4e49:	8b 45 ec             	mov    eax,DWORD PTR [rbp-0x14]
    4e4c:	01 d0                	add    eax,edx
    4e4e:	48 98                	cdqe   
    4e50:	48 89 c7             	mov    rdi,rax
    4e53:	e8 36 fd ff ff       	call   4b8e <stbi__malloc(unsigned long)>
    4e58:	90                   	nop
    4e59:	c9                   	leave  
    4e5a:	c3                   	ret    

0000000000004e5b <stbi_image_free>:
    4e5b:	55                   	push   rbp
    4e5c:	48 89 e5             	mov    rbp,rsp
    4e5f:	48 83 ec 10          	sub    rsp,0x10
    4e63:	48 89 7d f8          	mov    QWORD PTR [rbp-0x8],rdi
    4e67:	48 8b 45 f8          	mov    rax,QWORD PTR [rbp-0x8]
    4e6b:	48 89 c7             	mov    rdi,rax
    4e6e:	e8 bd f6 ff ff       	call   4530 <free@plt>
    4e73:	90                   	nop
    4e74:	c9                   	leave  
    4e75:	c3                   	ret    

0000000000004e76 <stbi_set_flip_vertically_on_load>:
    4e76:	55                   	push   rbp
    4e77:	48 89 e5             	mov    rbp,rsp
    4e7a:	89 7d fc             	mov    DWORD PTR [rbp-0x4],edi
    4e7d:	8b 45 fc             	mov    eax,DWORD PTR [rbp-0x4]
    4e80:	89 05 ee 58 04 00    	mov    DWORD PTR [rip+0x458ee],eax        # 4a774 <stbi__vertically_flip_on_load_global>
    4e86:	90                   	nop
    4e87:	5d                   	pop    rbp
    4e88:	c3                   	ret    

0000000000004e89 <stbi_set_flip_vertically_on_load_thread>:
    4e89:	55                   	push   rbp
    4e8a:	48 89 e5             	mov    rbp,rsp
    4e8d:	89 7d fc             	mov    DWORD PTR [rbp-0x4],edi
    4e90:	8b 45 fc             	mov    eax,DWORD PTR [rbp-0x4]
    4e93:	64 89 04 25 f8 ff ff ff 	mov    DWORD PTR fs:0xfffffffffffffff8,eax
    4e9b:	64 c7 04 25 fc ff ff ff 01 00 00 00 	mov    DWORD PTR fs:0xfffffffffffffffc,0x1
    4ea7:	90                   	nop
    4ea8:	5d                   	pop    rbp
    4ea9:	c3                   	ret    

0000000000004eaa <stbi__load_main(stbi__context*, int*, int*, int*, int, stbi__result_info*, int)>:
    4eaa:	55                   	push   rbp
    4eab:	48 89 e5             	mov    rbp,rsp
    4eae:	48 83 ec 40          	sub    rsp,0x40
    4eb2:	48 89 7d e8          	mov    QWORD PTR [rbp-0x18],rdi
    4eb6:	48 89 75 e0          	mov    QWORD PTR [rbp-0x20],rsi
    4eba:	48 89 55 d8          	mov    QWORD PTR [rbp-0x28],rdx
    4ebe:	48 89 4d d0          	mov    QWORD PTR [rbp-0x30],rcx
    4ec2:	44 89 45 cc          	mov    DWORD PTR [rbp-0x34],r8d
    4ec6:	4c 89 4d c0          	mov    QWORD PTR [rbp-0x40],r9
    4eca:	48 8b 45 c0          	mov    rax,QWORD PTR [rbp-0x40]
    4ece:	ba 0c 00 00 00       	mov    edx,0xc
    4ed3:	be 00 00 00 00       	mov    esi,0x0
    4ed8:	48 89 c7             	mov    rdi,rax
    4edb:	e8 00 f3 ff ff       	call   41e0 <memset@plt>
    4ee0:	48 8b 45 c0          	mov    rax,QWORD PTR [rbp-0x40]
    4ee4:	c7 00 08 00 00 00    	mov    DWORD PTR [rax],0x8
    4eea:	48 8b 45 c0          	mov    rax,QWORD PTR [rbp-0x40]
    4eee:	c7 40 08 00 00 00 00 	mov    DWORD PTR [rax+0x8],0x0
    4ef5:	48 8b 45 c0          	mov    rax,QWORD PTR [rbp-0x40]
    4ef9:	c7 40 04 00 00 00 00 	mov    DWORD PTR [rax+0x4],0x0
    4f00:	48 8b 45 e8          	mov    rax,QWORD PTR [rbp-0x18]
    4f04:	48 89 c7             	mov    rdi,rax
    4f07:	e8 67 e7 00 00       	call   13673 <stbi__jpeg_test(stbi__context*)>
    4f0c:	85 c0                	test   eax,eax
    4f0e:	0f 95 c0             	setne  al
    4f11:	84 c0                	test   al,al
    4f13:	74 2a                	je     4f3f <stbi__load_main(stbi__context*, int*, int*, int*, int, stbi__result_info*, int)+0x95>
    4f15:	4c 8b 45 c0          	mov    r8,QWORD PTR [rbp-0x40]
    4f19:	8b 7d cc             	mov    edi,DWORD PTR [rbp-0x34]
    4f1c:	48 8b 4d d0          	mov    rcx,QWORD PTR [rbp-0x30]
    4f20:	48 8b 55 d8          	mov    rdx,QWORD PTR [rbp-0x28]
    4f24:	48 8b 75 e0          	mov    rsi,QWORD PTR [rbp-0x20]
    4f28:	48 8b 45 e8          	mov    rax,QWORD PTR [rbp-0x18]
    4f2c:	4d 89 c1             	mov    r9,r8
    4f2f:	41 89 f8             	mov    r8d,edi
    4f32:	48 89 c7             	mov    rdi,rax
    4f35:	e8 c0 e6 00 00       	call   135fa <stbi__jpeg_load(stbi__context*, int*, int*, int*, int, stbi__result_info*)>
    4f3a:	e9 39 02 00 00       	jmp    5178 <stbi__load_main(stbi__context*, int*, int*, int*, int, stbi__result_info*, int)+0x2ce>
    4f3f:	48 8b 45 e8          	mov    rax,QWORD PTR [rbp-0x18]
    4f43:	48 89 c7             	mov    rdi,rax
    4f46:	e8 f5 31 01 00       	call   18140 <stbi__png_test(stbi__context*)>
    4f4b:	85 c0                	test   eax,eax
    4f4d:	0f 95 c0             	setne  al
    4f50:	84 c0                	test   al,al
    4f52:	74 2a                	je     4f7e <stbi__load_main(stbi__context*, int*, int*, int*, int, stbi__result_info*, int)+0xd4>
    4f54:	4c 8b 45 c0          	mov    r8,QWORD PTR [rbp-0x40]
    4f58:	8b 7d cc             	mov    edi,DWORD PTR [rbp-0x34]
    4f5b:	48 8b 4d d0          	mov    rcx,QWORD PTR [rbp-0x30]
    4f5f:	48 8b 55 d8          	mov    rdx,QWORD PTR [rbp-0x28]
    4f63:	48 8b 75 e0          	mov    rsi,QWORD PTR [rbp-0x20]
    4f67:	48 8b 45 e8          	mov    rax,QWORD PTR [rbp-0x18]
    4f6b:	4d 89 c1             	mov    r9,r8
    4f6e:	41 89 f8             	mov    r8d,edi
    4f71:	48 89 c7             	mov    rdi,rax
    4f74:	e8 55 31 01 00       	call   180ce <stbi__png_load(stbi__context*, int*, int*, int*, int, stbi__result_info*)>
    4f79:	e9 fa 01 00 00       	jmp    5178 <stbi__load_main(stbi__context*, int*, int*, int*, int, stbi__result_info*, int)+0x2ce>
    4f7e:	48 8b 45 e8          	mov    rax,QWORD PTR [rbp-0x18]
    4f82:	48 89 c7             	mov    rdi,rax
    4f85:	e8 1a 34 01 00       	call   183a4 <stbi__bmp_test(stbi__context*)>
    4f8a:	85 c0                	test   eax,eax
    4f8c:	0f 95 c0             	setne  al
    4f8f:	84 c0                	test   al,al
    4f91:	74 2a                	je     4fbd <stbi__load_main(stbi__context*, int*, int*, int*, int, stbi__result_info*, int)+0x113>
    4f93:	4c 8b 45 c0          	mov    r8,QWORD PTR [rbp-0x40]
    4f97:	8b 7d cc             	mov    edi,DWORD PTR [rbp-0x34]
    4f9a:	48 8b 4d d0          	mov    rcx,QWORD PTR [rbp-0x30]
    4f9e:	48 8b 55 d8          	mov    rdx,QWORD PTR [rbp-0x28]
    4fa2:	48 8b 75 e0          	mov    rsi,QWORD PTR [rbp-0x20]
    4fa6:	48 8b 45 e8          	mov    rax,QWORD PTR [rbp-0x18]
    4faa:	4d 89 c1             	mov    r9,r8
    4fad:	41 89 f8             	mov    r8d,edi
    4fb0:	48 89 c7             	mov    rdi,rax
    4fb3:	e8 56 3a 01 00       	call   18a0e <stbi__bmp_load(stbi__context*, int*, int*, int*, int, stbi__result_info*)>
    4fb8:	e9 bb 01 00 00       	jmp    5178 <stbi__load_main(stbi__context*, int*, int*, int*, int, stbi__result_info*, int)+0x2ce>
    4fbd:	48 8b 45 e8          	mov    rax,QWORD PTR [rbp-0x18]
    4fc1:	48 89 c7             	mov    rdi,rax
    4fc4:	e8 dd 6b 01 00       	call   1bba6 <stbi__gif_test(stbi__context*)>
    4fc9:	85 c0                	test   eax,eax
    4fcb:	0f 95 c0             	setne  al
    4fce:	84 c0                	test   al,al
    4fd0:	74 2a                	je     4ffc <stbi__load_main(stbi__context*, int*, int*, int*, int, stbi__result_info*, int)+0x152>
    4fd2:	4c 8b 45 c0          	mov    r8,QWORD PTR [rbp-0x40]
    4fd6:	8b 7d cc             	mov    edi,DWORD PTR [rbp-0x34]
    4fd9:	48 8b 4d d0          	mov    rcx,QWORD PTR [rbp-0x30]
    4fdd:	48 8b 55 d8          	mov    rdx,QWORD PTR [rbp-0x28]
    4fe1:	48 8b 75 e0          	mov    rsi,QWORD PTR [rbp-0x20]
    4fe5:	48 8b 45 e8          	mov    rax,QWORD PTR [rbp-0x18]
    4fe9:	4d 89 c1             	mov    r9,r8
    4fec:	41 89 f8             	mov    r8d,edi
    4fef:	48 89 c7             	mov    rdi,rax
    4ff2:	e8 ed 7f 01 00       	call   1cfe4 <stbi__gif_load(stbi__context*, int*, int*, int*, int, stbi__result_info*)>
    4ff7:	e9 7c 01 00 00       	jmp    5178 <stbi__load_main(stbi__context*, int*, int*, int*, int, stbi__result_info*, int)+0x2ce>
    4ffc:	48 8b 45 e8          	mov    rax,QWORD PTR [rbp-0x18]
    5000:	48 89 c7             	mov    rdi,rax
    5003:	e8 89 58 01 00       	call   1a891 <stbi__psd_test(stbi__context*)>
    5008:	85 c0                	test   eax,eax
    500a:	0f 95 c0             	setne  al
    500d:	84 c0                	test   al,al
    500f:	74 31                	je     5042 <stbi__load_main(stbi__context*, int*, int*, int*, int, stbi__result_info*, int)+0x198>
    5011:	4c 8b 4d c0          	mov    r9,QWORD PTR [rbp-0x40]
    5015:	44 8b 45 cc          	mov    r8d,DWORD PTR [rbp-0x34]
    5019:	48 8b 4d d0          	mov    rcx,QWORD PTR [rbp-0x30]
    501d:	48 8b 55 d8          	mov    rdx,QWORD PTR [rbp-0x28]
    5021:	48 8b 75 e0          	mov    rsi,QWORD PTR [rbp-0x20]
    5025:	48 8b 45 e8          	mov    rax,QWORD PTR [rbp-0x18]
    5029:	48 83 ec 08          	sub    rsp,0x8
    502d:	8b 7d 10             	mov    edi,DWORD PTR [rbp+0x10]
    5030:	57                   	push   rdi
    5031:	48 89 c7             	mov    rdi,rax
    5034:	e8 86 59 01 00       	call   1a9bf <stbi__psd_load(stbi__context*, int*, int*, int*, int, stbi__result_info*, int)>
    5039:	48 83 c4 10          	add    rsp,0x10
    503d:	e9 36 01 00 00       	jmp    5178 <stbi__load_main(stbi__context*, int*, int*, int*, int, stbi__result_info*, int)+0x2ce>
    5042:	48 8b 45 e8          	mov    rax,QWORD PTR [rbp-0x18]
    5046:	48 89 c7             	mov    rdi,rax
    5049:	e8 81 6a 01 00       	call   1bacf <stbi__pic_test(stbi__context*)>
    504e:	85 c0                	test   eax,eax
    5050:	0f 95 c0             	setne  al
    5053:	84 c0                	test   al,al
    5055:	74 2a                	je     5081 <stbi__load_main(stbi__context*, int*, int*, int*, int, stbi__result_info*, int)+0x1d7>
    5057:	4c 8b 45 c0          	mov    r8,QWORD PTR [rbp-0x40]
    505b:	8b 7d cc             	mov    edi,DWORD PTR [rbp-0x34]
    505e:	48 8b 4d d0          	mov    rcx,QWORD PTR [rbp-0x30]
    5062:	48 8b 55 d8          	mov    rdx,QWORD PTR [rbp-0x28]
    5066:	48 8b 75 e0          	mov    rsi,QWORD PTR [rbp-0x20]
    506a:	48 8b 45 e8          	mov    rax,QWORD PTR [rbp-0x18]
    506e:	4d 89 c1             	mov    r9,r8
    5071:	41 89 f8             	mov    r8d,edi
    5074:	48 89 c7             	mov    rdi,rax
    5077:	e8 7d 68 01 00       	call   1b8f9 <stbi__pic_load(stbi__context*, int*, int*, int*, int, stbi__result_info*)>
    507c:	e9 f7 00 00 00       	jmp    5178 <stbi__load_main(stbi__context*, int*, int*, int*, int, stbi__result_info*, int)+0x2ce>
    5081:	48 8b 45 e8          	mov    rax,QWORD PTR [rbp-0x18]
    5085:	48 89 c7             	mov    rdi,rax
    5088:	e8 33 95 01 00       	call   1e5c0 <stbi__pnm_test(stbi__context*)>
    508d:	85 c0                	test   eax,eax
    508f:	0f 95 c0             	setne  al
    5092:	84 c0                	test   al,al
    5094:	74 2a                	je     50c0 <stbi__load_main(stbi__context*, int*, int*, int*, int, stbi__result_info*, int)+0x216>
    5096:	4c 8b 45 c0          	mov    r8,QWORD PTR [rbp-0x40]
    509a:	8b 7d cc             	mov    edi,DWORD PTR [rbp-0x34]
    509d:	48 8b 4d d0          	mov    rcx,QWORD PTR [rbp-0x30]
    50a1:	48 8b 55 d8          	mov    rdx,QWORD PTR [rbp-0x28]
    50a5:	48 8b 75 e0          	mov    rsi,QWORD PTR [rbp-0x20]
    50a9:	48 8b 45 e8          	mov    rax,QWORD PTR [rbp-0x18]
    50ad:	4d 89 c1             	mov    r9,r8
    50b0:	41 89 f8             	mov    r8d,edi
    50b3:	48 89 c7             	mov    rdi,rax
    50b6:	e8 5b 95 01 00       	call   1e616 <stbi__pnm_load(stbi__context*, int*, int*, int*, int, stbi__result_info*)>
    50bb:	e9 b8 00 00 00       	jmp    5178 <stbi__load_main(stbi__context*, int*, int*, int*, int, stbi__result_info*, int)+0x2ce>
    50c0:	48 8b 45 e8          	mov    rax,QWORD PTR [rbp-0x18]
    50c4:	48 89 c7             	mov    rdi,rax
    50c7:	e8 39 81 01 00       	call   1d205 <stbi__hdr_test(stbi__context*)>
    50cc:	85 c0                	test   eax,eax
    50ce:	0f 95 c0             	setne  al
    50d1:	84 c0                	test   al,al
    50d3:	74 53                	je     5128 <stbi__load_main(stbi__context*, int*, int*, int*, int, stbi__result_info*, int)+0x27e>
    50d5:	4c 8b 45 c0          	mov    r8,QWORD PTR [rbp-0x40]
    50d9:	8b 7d cc             	mov    edi,DWORD PTR [rbp-0x34]
    50dc:	48 8b 4d d0          	mov    rcx,QWORD PTR [rbp-0x30]
    50e0:	48 8b 55 d8          	mov    rdx,QWORD PTR [rbp-0x28]
    50e4:	48 8b 75 e0          	mov    rsi,QWORD PTR [rbp-0x20]
    50e8:	48 8b 45 e8          	mov    rax,QWORD PTR [rbp-0x18]
    50ec:	4d 89 c1             	mov    r9,r8
    50ef:	41 89 f8             	mov    r8d,edi
    50f2:	48 89 c7             	mov    rdi,rax
    50f5:	e8 15 84 01 00       	call   1d50f <stbi__hdr_load(stbi__context*, int*, int*, int*, int, stbi__result_info*)>
    50fa:	48 89 45 f8          	mov    QWORD PTR [rbp-0x8],rax
    50fe:	83 7d cc 00          	cmp    DWORD PTR [rbp-0x34],0x0
    5102:	75 08                	jne    510c <stbi__load_main(stbi__context*, int*, int*, int*, int, stbi__result_info*, int)+0x262>
    5104:	48 8b 45 d0          	mov    rax,QWORD PTR [rbp-0x30]
    5108:	8b 00                	mov    eax,DWORD PTR [rax]
    510a:	eb 03                	jmp    510f <stbi__load_main(stbi__context*, int*, int*, int*, int, stbi__result_info*, int)+0x265>
    510c:	8b 45 cc             	mov    eax,DWORD PTR [rbp-0x34]
    510f:	48 8b 55 d8          	mov    rdx,QWORD PTR [rbp-0x28]
    5113:	8b 12                	mov    edx,DWORD PTR [rdx]
    5115:	48 8b 4d e0          	mov    rcx,QWORD PTR [rbp-0x20]
    5119:	8b 31                	mov    esi,DWORD PTR [rcx]
    511b:	48 8b 7d f8          	mov    rdi,QWORD PTR [rbp-0x8]
    511f:	89 c1                	mov    ecx,eax
    5121:	e8 a0 24 00 00       	call   75c6 <stbi__hdr_to_ldr(float*, int, int, int)>
    5126:	eb 50                	jmp    5178 <stbi__load_main(stbi__context*, int*, int*, int*, int, stbi__result_info*, int)+0x2ce>
    5128:	48 8b 45 e8          	mov    rax,QWORD PTR [rbp-0x18]
    512c:	48 89 c7             	mov    rdi,rax
    512f:	e8 64 4c 01 00       	call   19d98 <stbi__tga_test(stbi__context*)>
    5134:	85 c0                	test   eax,eax
    5136:	0f 95 c0             	setne  al
    5139:	84 c0                	test   al,al
    513b:	74 27                	je     5164 <stbi__load_main(stbi__context*, int*, int*, int*, int, stbi__result_info*, int)+0x2ba>
    513d:	4c 8b 45 c0          	mov    r8,QWORD PTR [rbp-0x40]
    5141:	8b 7d cc             	mov    edi,DWORD PTR [rbp-0x34]
    5144:	48 8b 4d d0          	mov    rcx,QWORD PTR [rbp-0x30]
    5148:	48 8b 55 d8          	mov    rdx,QWORD PTR [rbp-0x28]
    514c:	48 8b 75 e0          	mov    rsi,QWORD PTR [rbp-0x20]
    5150:	48 8b 45 e8          	mov    rax,QWORD PTR [rbp-0x18]
    5154:	4d 89 c1             	mov    r9,r8
    5157:	41 89 f8             	mov    r8d,edi
    515a:	48 89 c7             	mov    rdi,rax
    515d:	e8 9b 4e 01 00       	call   19ffd <stbi__tga_load(stbi__context*, int*, int*, int*, int, stbi__result_info*)>
    5162:	eb 14                	jmp    5178 <stbi__load_main(stbi__context*, int*, int*, int*, int, stbi__result_info*, int)+0x2ce>
    5164:	48 8d 05 b5 4e 03 00 	lea    rax,[rip+0x34eb5]        # 3a020 <_IO_stdin_used+0x20>
    516b:	48 89 c7             	mov    rdi,rax
    516e:	e8 ff f9 ff ff       	call   4b72 <stbi__err(char const*)>
    5173:	b8 00 00 00 00       	mov    eax,0x0
    5178:	c9                   	leave  
    5179:	c3                   	ret    

000000000000517a <stbi__convert_16_to_8(unsigned short*, int, int, int)>:
    517a:	55                   	push   rbp
    517b:	48 89 e5             	mov    rbp,rsp
    517e:	48 83 ec 30          	sub    rsp,0x30
    5182:	48 89 7d e8          	mov    QWORD PTR [rbp-0x18],rdi
    5186:	89 75 e4             	mov    DWORD PTR [rbp-0x1c],esi
    5189:	89 55 e0             	mov    DWORD PTR [rbp-0x20],edx
    518c:	89 4d dc             	mov    DWORD PTR [rbp-0x24],ecx
    518f:	8b 45 e4             	mov    eax,DWORD PTR [rbp-0x1c]
    5192:	0f af 45 e0          	imul   eax,DWORD PTR [rbp-0x20]
    5196:	8b 55 dc             	mov    edx,DWORD PTR [rbp-0x24]
    5199:	0f af c2             	imul   eax,edx
    519c:	89 45 f4             	mov    DWORD PTR [rbp-0xc],eax
    519f:	8b 45 f4             	mov    eax,DWORD PTR [rbp-0xc]
    51a2:	48 98                	cdqe   
    51a4:	48 89 c7             	mov    rdi,rax
    51a7:	e8 e2 f9 ff ff       	call   4b8e <stbi__malloc(unsigned long)>
    51ac:	48 89 45 f8          	mov    QWORD PTR [rbp-0x8],rax
    51b0:	48 83 7d f8 00       	cmp    QWORD PTR [rbp-0x8],0x0
    51b5:	75 16                	jne    51cd <stbi__convert_16_to_8(unsigned short*, int, int, int)+0x53>
    51b7:	48 8d 05 75 4e 03 00 	lea    rax,[rip+0x34e75]        # 3a033 <_IO_stdin_used+0x33>
    51be:	48 89 c7             	mov    rdi,rax
    51c1:	e8 ac f9 ff ff       	call   4b72 <stbi__err(char const*)>
    51c6:	b8 00 00 00 00       	mov    eax,0x0
    51cb:	eb 4f                	jmp    521c <stbi__convert_16_to_8(unsigned short*, int, int, int)+0xa2>
    51cd:	c7 45 f0 00 00 00 00 	mov    DWORD PTR [rbp-0x10],0x0
    51d4:	eb 2e                	jmp    5204 <stbi__convert_16_to_8(unsigned short*, int, int, int)+0x8a>
    51d6:	8b 45 f0             	mov    eax,DWORD PTR [rbp-0x10]
    51d9:	48 98                	cdqe   
    51db:	48 8d 14 00          	lea    rdx,[rax+rax*1]
    51df:	48 8b 45 e8          	mov    rax,QWORD PTR [rbp-0x18]
    51e3:	48 01 d0             	add    rax,rdx
    51e6:	0f b7 00             	movzx  eax,WORD PTR [rax]
    51e9:	66 c1 e8 08          	shr    ax,0x8
    51ed:	89 c1                	mov    ecx,eax
    51ef:	8b 45 f0             	mov    eax,DWORD PTR [rbp-0x10]
    51f2:	48 63 d0             	movsxd rdx,eax
    51f5:	48 8b 45 f8          	mov    rax,QWORD PTR [rbp-0x8]
    51f9:	48 01 d0             	add    rax,rdx
    51fc:	89 ca                	mov    edx,ecx
    51fe:	88 10                	mov    BYTE PTR [rax],dl
    5200:	83 45 f0 01          	add    DWORD PTR [rbp-0x10],0x1
    5204:	8b 45 f0             	mov    eax,DWORD PTR [rbp-0x10]
    5207:	3b 45 f4             	cmp    eax,DWORD PTR [rbp-0xc]
    520a:	7c ca                	jl     51d6 <stbi__convert_16_to_8(unsigned short*, int, int, int)+0x5c>
    520c:	48 8b 45 e8          	mov    rax,QWORD PTR [rbp-0x18]
    5210:	48 89 c7             	mov    rdi,rax
    5213:	e8 18 f3 ff ff       	call   4530 <free@plt>
    5218:	48 8b 45 f8          	mov    rax,QWORD PTR [rbp-0x8]
    521c:	c9                   	leave  
    521d:	c3                   	ret    

000000000000521e <stbi__convert_8_to_16(unsigned char*, int, int, int)>:
    521e:	55                   	push   rbp
    521f:	48 89 e5             	mov    rbp,rsp
    5222:	48 83 ec 30          	sub    rsp,0x30
    5226:	48 89 7d e8          	mov    QWORD PTR [rbp-0x18],rdi
    522a:	89 75 e4             	mov    DWORD PTR [rbp-0x1c],esi
    522d:	89 55 e0             	mov    DWORD PTR [rbp-0x20],edx
    5230:	89 4d dc             	mov    DWORD PTR [rbp-0x24],ecx
    5233:	8b 45 e4             	mov    eax,DWORD PTR [rbp-0x1c]
    5236:	0f af 45 e0          	imul   eax,DWORD PTR [rbp-0x20]
    523a:	8b 55 dc             	mov    edx,DWORD PTR [rbp-0x24]
    523d:	0f af c2             	imul   eax,edx
    5240:	89 45 f4             	mov    DWORD PTR [rbp-0xc],eax
    5243:	8b 45 f4             	mov    eax,DWORD PTR [rbp-0xc]
    5246:	01 c0                	add    eax,eax
    5248:	48 98                	cdqe   
    524a:	48 89 c7             	mov    rdi,rax
    524d:	e8 3c f9 ff ff       	call   4b8e <stbi__malloc(unsigned long)>
    5252:	48 89 45 f8          	mov    QWORD PTR [rbp-0x8],rax
    5256:	48 83 7d f8 00       	cmp    QWORD PTR [rbp-0x8],0x0
    525b:	75 16                	jne    5273 <stbi__convert_8_to_16(unsigned char*, int, int, int)+0x55>
    525d:	48 8d 05 cf 4d 03 00 	lea    rax,[rip+0x34dcf]        # 3a033 <_IO_stdin_used+0x33>
    5264:	48 89 c7             	mov    rdi,rax
    5267:	e8 06 f9 ff ff       	call   4b72 <stbi__err(char const*)>
    526c:	b8 00 00 00 00       	mov    eax,0x0
    5271:	eb 65                	jmp    52d8 <stbi__convert_8_to_16(unsigned char*, int, int, int)+0xba>
    5273:	c7 45 f0 00 00 00 00 	mov    DWORD PTR [rbp-0x10],0x0
    527a:	eb 44                	jmp    52c0 <stbi__convert_8_to_16(unsigned char*, int, int, int)+0xa2>
    527c:	8b 45 f0             	mov    eax,DWORD PTR [rbp-0x10]
    527f:	48 63 d0             	movsxd rdx,eax
    5282:	48 8b 45 e8          	mov    rax,QWORD PTR [rbp-0x18]
    5286:	48 01 d0             	add    rax,rdx
    5289:	0f b6 00             	movzx  eax,BYTE PTR [rax]
    528c:	0f b6 c0             	movzx  eax,al
    528f:	c1 e0 08             	shl    eax,0x8
    5292:	89 c1                	mov    ecx,eax
    5294:	8b 45 f0             	mov    eax,DWORD PTR [rbp-0x10]
    5297:	48 63 d0             	movsxd rdx,eax
    529a:	48 8b 45 e8          	mov    rax,QWORD PTR [rbp-0x18]
    529e:	48 01 d0             	add    rax,rdx
    52a1:	0f b6 00             	movzx  eax,BYTE PTR [rax]
    52a4:	0f b6 d0             	movzx  edx,al
    52a7:	8b 45 f0             	mov    eax,DWORD PTR [rbp-0x10]
    52aa:	48 98                	cdqe   
    52ac:	48 8d 34 00          	lea    rsi,[rax+rax*1]
    52b0:	48 8b 45 f8          	mov    rax,QWORD PTR [rbp-0x8]
    52b4:	48 01 f0             	add    rax,rsi
    52b7:	01 ca                	add    edx,ecx
    52b9:	66 89 10             	mov    WORD PTR [rax],dx
    52bc:	83 45 f0 01          	add    DWORD PTR [rbp-0x10],0x1
    52c0:	8b 45 f0             	mov    eax,DWORD PTR [rbp-0x10]
    52c3:	3b 45 f4             	cmp    eax,DWORD PTR [rbp-0xc]
    52c6:	7c b4                	jl     527c <stbi__convert_8_to_16(unsigned char*, int, int, int)+0x5e>
    52c8:	48 8b 45 e8          	mov    rax,QWORD PTR [rbp-0x18]
    52cc:	48 89 c7             	mov    rdi,rax
    52cf:	e8 5c f2 ff ff       	call   4530 <free@plt>
    52d4:	48 8b 45 f8          	mov    rax,QWORD PTR [rbp-0x8]
    52d8:	c9                   	leave  
    52d9:	c3                   	ret    

00000000000052da <stbi__vertical_flip(void*, int, int, int)>:
    52da:	55                   	push   rbp
    52db:	48 89 e5             	mov    rbp,rsp
    52de:	48 81 ec 70 08 00 00 	sub    rsp,0x870
    52e5:	48 89 bd a8 f7 ff ff 	mov    QWORD PTR [rbp-0x858],rdi
    52ec:	89 b5 a4 f7 ff ff    	mov    DWORD PTR [rbp-0x85c],esi
    52f2:	89 95 a0 f7 ff ff    	mov    DWORD PTR [rbp-0x860],edx
    52f8:	89 8d 9c f7 ff ff    	mov    DWORD PTR [rbp-0x864],ecx
    52fe:	64 48 8b 04 25 28 00 00 00 	mov    rax,QWORD PTR fs:0x28
    5307:	48 89 45 f8          	mov    QWORD PTR [rbp-0x8],rax
    530b:	31 c0                	xor    eax,eax
    530d:	8b 85 a4 f7 ff ff    	mov    eax,DWORD PTR [rbp-0x85c]
    5313:	48 63 d0             	movsxd rdx,eax
    5316:	8b 85 9c f7 ff ff    	mov    eax,DWORD PTR [rbp-0x864]
    531c:	48 98                	cdqe   
    531e:	48 0f af c2          	imul   rax,rdx
    5322:	48 89 85 d8 f7 ff ff 	mov    QWORD PTR [rbp-0x828],rax
    5329:	48 8b 85 a8 f7 ff ff 	mov    rax,QWORD PTR [rbp-0x858]
    5330:	48 89 85 e0 f7 ff ff 	mov    QWORD PTR [rbp-0x820],rax
    5337:	c7 85 bc f7 ff ff 00 00 00 00 	mov    DWORD PTR [rbp-0x844],0x0
    5341:	e9 1d 01 00 00       	jmp    5463 <stbi__vertical_flip(void*, int, int, int)+0x189>
    5346:	8b 85 bc f7 ff ff    	mov    eax,DWORD PTR [rbp-0x844]
    534c:	48 98                	cdqe   
    534e:	48 0f af 85 d8 f7 ff ff 	imul   rax,QWORD PTR [rbp-0x828]
    5356:	48 89 c2             	mov    rdx,rax
    5359:	48 8b 85 e0 f7 ff ff 	mov    rax,QWORD PTR [rbp-0x820]
    5360:	48 01 d0             	add    rax,rdx
    5363:	48 89 85 c0 f7 ff ff 	mov    QWORD PTR [rbp-0x840],rax
    536a:	8b 85 a0 f7 ff ff    	mov    eax,DWORD PTR [rbp-0x860]
    5370:	2b 85 bc f7 ff ff    	sub    eax,DWORD PTR [rbp-0x844]
    5376:	83 e8 01             	sub    eax,0x1
    5379:	48 98                	cdqe   
    537b:	48 0f af 85 d8 f7 ff ff 	imul   rax,QWORD PTR [rbp-0x828]
    5383:	48 89 c2             	mov    rdx,rax
    5386:	48 8b 85 e0 f7 ff ff 	mov    rax,QWORD PTR [rbp-0x820]
    538d:	48 01 d0             	add    rax,rdx
    5390:	48 89 85 c8 f7 ff ff 	mov    QWORD PTR [rbp-0x838],rax
    5397:	48 8b 85 d8 f7 ff ff 	mov    rax,QWORD PTR [rbp-0x828]
    539e:	48 89 85 d0 f7 ff ff 	mov    QWORD PTR [rbp-0x830],rax
    53a5:	e9 a4 00 00 00       	jmp    544e <stbi__vertical_flip(void*, int, int, int)+0x174>
    53aa:	48 8b 85 d0 f7 ff ff 	mov    rax,QWORD PTR [rbp-0x830]
    53b1:	ba 00 08 00 00       	mov    edx,0x800
    53b6:	48 39 d0             	cmp    rax,rdx
    53b9:	48 0f 47 c2          	cmova  rax,rdx
    53bd:	48 89 85 e8 f7 ff ff 	mov    QWORD PTR [rbp-0x818],rax
    53c4:	48 8b 95 e8 f7 ff ff 	mov    rdx,QWORD PTR [rbp-0x818]
    53cb:	48 8b 8d c0 f7 ff ff 	mov    rcx,QWORD PTR [rbp-0x840]
    53d2:	48 8d 85 f0 f7 ff ff 	lea    rax,[rbp-0x810]
    53d9:	48 89 ce             	mov    rsi,rcx
    53dc:	48 89 c7             	mov    rdi,rax
    53df:	e8 8c ef ff ff       	call   4370 <memcpy@plt>
    53e4:	48 8b 95 e8 f7 ff ff 	mov    rdx,QWORD PTR [rbp-0x818]
    53eb:	48 8b 8d c8 f7 ff ff 	mov    rcx,QWORD PTR [rbp-0x838]
    53f2:	48 8b 85 c0 f7 ff ff 	mov    rax,QWORD PTR [rbp-0x840]
    53f9:	48 89 ce             	mov    rsi,rcx
    53fc:	48 89 c7             	mov    rdi,rax
    53ff:	e8 6c ef ff ff       	call   4370 <memcpy@plt>
    5404:	48 8b 95 e8 f7 ff ff 	mov    rdx,QWORD PTR [rbp-0x818]
    540b:	48 8d 8d f0 f7 ff ff 	lea    rcx,[rbp-0x810]
    5412:	48 8b 85 c8 f7 ff ff 	mov    rax,QWORD PTR [rbp-0x838]
    5419:	48 89 ce             	mov    rsi,rcx
    541c:	48 89 c7             	mov    rdi,rax
    541f:	e8 4c ef ff ff       	call   4370 <memcpy@plt>
    5424:	48 8b 85 e8 f7 ff ff 	mov    rax,QWORD PTR [rbp-0x818]
    542b:	48 01 85 c0 f7 ff ff 	add    QWORD PTR [rbp-0x840],rax
    5432:	48 8b 85 e8 f7 ff ff 	mov    rax,QWORD PTR [rbp-0x818]
    5439:	48 01 85 c8 f7 ff ff 	add    QWORD PTR [rbp-0x838],rax
    5440:	48 8b 85 e8 f7 ff ff 	mov    rax,QWORD PTR [rbp-0x818]
    5447:	48 29 85 d0 f7 ff ff 	sub    QWORD PTR [rbp-0x830],rax
    544e:	48 83 bd d0 f7 ff ff 00 	cmp    QWORD PTR [rbp-0x830],0x0
    5456:	0f 85 4e ff ff ff    	jne    53aa <stbi__vertical_flip(void*, int, int, int)+0xd0>
    545c:	83 85 bc f7 ff ff 01 	add    DWORD PTR [rbp-0x844],0x1
    5463:	8b 85 a0 f7 ff ff    	mov    eax,DWORD PTR [rbp-0x860]
    5469:	d1 f8                	sar    eax,1
    546b:	39 85 bc f7 ff ff    	cmp    DWORD PTR [rbp-0x844],eax
    5471:	0f 8c cf fe ff ff    	jl     5346 <stbi__vertical_flip(void*, int, int, int)+0x6c>
    5477:	90                   	nop
    5478:	48 8b 45 f8          	mov    rax,QWORD PTR [rbp-0x8]
    547c:	64 48 2b 04 25 28 00 00 00 	sub    rax,QWORD PTR fs:0x28
    5485:	74 05                	je     548c <stbi__vertical_flip(void*, int, int, int)+0x1b2>
    5487:	e8 54 f0 ff ff       	call   44e0 <__stack_chk_fail@plt>
    548c:	c9                   	leave  
    548d:	c3                   	ret    

000000000000548e <stbi__vertical_flip_slices(void*, int, int, int, int)>:
    548e:	55                   	push   rbp
    548f:	48 89 e5             	mov    rbp,rsp
    5492:	48 83 ec 30          	sub    rsp,0x30
    5496:	48 89 7d e8          	mov    QWORD PTR [rbp-0x18],rdi
    549a:	89 75 e4             	mov    DWORD PTR [rbp-0x1c],esi
    549d:	89 55 e0             	mov    DWORD PTR [rbp-0x20],edx
    54a0:	89 4d dc             	mov    DWORD PTR [rbp-0x24],ecx
    54a3:	44 89 45 d8          	mov    DWORD PTR [rbp-0x28],r8d
    54a7:	8b 45 e4             	mov    eax,DWORD PTR [rbp-0x1c]
    54aa:	0f af 45 e0          	imul   eax,DWORD PTR [rbp-0x20]
    54ae:	8b 55 d8             	mov    edx,DWORD PTR [rbp-0x28]
    54b1:	0f af c2             	imul   eax,edx
    54b4:	89 45 f4             	mov    DWORD PTR [rbp-0xc],eax
    54b7:	48 8b 45 e8          	mov    rax,QWORD PTR [rbp-0x18]
    54bb:	48 89 45 f8          	mov    QWORD PTR [rbp-0x8],rax
    54bf:	c7 45 f0 00 00 00 00 	mov    DWORD PTR [rbp-0x10],0x0
    54c6:	eb 22                	jmp    54ea <stbi__vertical_flip_slices(void*, int, int, int, int)+0x5c>
    54c8:	8b 4d d8             	mov    ecx,DWORD PTR [rbp-0x28]
    54cb:	8b 55 e0             	mov    edx,DWORD PTR [rbp-0x20]
    54ce:	8b 75 e4             	mov    esi,DWORD PTR [rbp-0x1c]
    54d1:	48 8b 45 f8          	mov    rax,QWORD PTR [rbp-0x8]
    54d5:	48 89 c7             	mov    rdi,rax
    54d8:	e8 fd fd ff ff       	call   52da <stbi__vertical_flip(void*, int, int, int)>
    54dd:	8b 45 f4             	mov    eax,DWORD PTR [rbp-0xc]
    54e0:	48 98                	cdqe   
    54e2:	48 01 45 f8          	add    QWORD PTR [rbp-0x8],rax
    54e6:	83 45 f0 01          	add    DWORD PTR [rbp-0x10],0x1
    54ea:	8b 45 f0             	mov    eax,DWORD PTR [rbp-0x10]
    54ed:	3b 45 dc             	cmp    eax,DWORD PTR [rbp-0x24]
    54f0:	7c d6                	jl     54c8 <stbi__vertical_flip_slices(void*, int, int, int, int)+0x3a>
    54f2:	90                   	nop
    54f3:	90                   	nop
    54f4:	c9                   	leave  
    54f5:	c3                   	ret    

00000000000054f6 <stbi__load_and_postprocess_8bit(stbi__context*, int*, int*, int*, int)>:
    54f6:	55                   	push   rbp
    54f7:	48 89 e5             	mov    rbp,rsp
    54fa:	48 83 ec 60          	sub    rsp,0x60
    54fe:	48 89 7d c8          	mov    QWORD PTR [rbp-0x38],rdi
    5502:	48 89 75 c0          	mov    QWORD PTR [rbp-0x40],rsi
    5506:	48 89 55 b8          	mov    QWORD PTR [rbp-0x48],rdx
    550a:	48 89 4d b0          	mov    QWORD PTR [rbp-0x50],rcx
    550e:	44 89 45 ac          	mov    DWORD PTR [rbp-0x54],r8d
    5512:	64 48 8b 04 25 28 00 00 00 	mov    rax,QWORD PTR fs:0x28
    551b:	48 89 45 f8          	mov    QWORD PTR [rbp-0x8],rax
    551f:	31 c0                	xor    eax,eax
    5521:	4c 8d 45 ec          	lea    r8,[rbp-0x14]
    5525:	8b 7d ac             	mov    edi,DWORD PTR [rbp-0x54]
    5528:	48 8b 4d b0          	mov    rcx,QWORD PTR [rbp-0x50]
    552c:	48 8b 55 b8          	mov    rdx,QWORD PTR [rbp-0x48]
    5530:	48 8b 75 c0          	mov    rsi,QWORD PTR [rbp-0x40]
    5534:	48 8b 45 c8          	mov    rax,QWORD PTR [rbp-0x38]
    5538:	48 83 ec 08          	sub    rsp,0x8
    553c:	6a 08                	push   0x8
    553e:	4d 89 c1             	mov    r9,r8
    5541:	41 89 f8             	mov    r8d,edi
    5544:	48 89 c7             	mov    rdi,rax
    5547:	e8 5e f9 ff ff       	call   4eaa <stbi__load_main(stbi__context*, int*, int*, int*, int, stbi__result_info*, int)>
    554c:	48 83 c4 10          	add    rsp,0x10
    5550:	48 89 45 e0          	mov    QWORD PTR [rbp-0x20],rax
    5554:	48 83 7d e0 00       	cmp    QWORD PTR [rbp-0x20],0x0
    5559:	75 0a                	jne    5565 <stbi__load_and_postprocess_8bit(stbi__context*, int*, int*, int*, int)+0x6f>
    555b:	b8 00 00 00 00       	mov    eax,0x0
    5560:	e9 be 00 00 00       	jmp    5623 <stbi__load_and_postprocess_8bit(stbi__context*, int*, int*, int*, int)+0x12d>
    5565:	8b 45 ec             	mov    eax,DWORD PTR [rbp-0x14]
    5568:	83 f8 08             	cmp    eax,0x8
    556b:	74 63                	je     55d0 <stbi__load_and_postprocess_8bit(stbi__context*, int*, int*, int*, int)+0xda>
    556d:	8b 45 ec             	mov    eax,DWORD PTR [rbp-0x14]
    5570:	83 f8 10             	cmp    eax,0x10
    5573:	74 28                	je     559d <stbi__load_and_postprocess_8bit(stbi__context*, int*, int*, int*, int)+0xa7>
    5575:	48 8d 05 c4 4a 03 00 	lea    rax,[rip+0x34ac4]        # 3a040 <_IO_stdin_used+0x40>
    557c:	48 89 c1             	mov    rcx,rax
    557f:	ba 97 04 00 00       	mov    edx,0x497
    5584:	48 8d 05 0d 4b 03 00 	lea    rax,[rip+0x34b0d]        # 3a098 <_IO_stdin_used+0x98>
    558b:	48 89 c6             	mov    rsi,rax
    558e:	48 8d 05 23 4b 03 00 	lea    rax,[rip+0x34b23]        # 3a0b8 <_IO_stdin_used+0xb8>
    5595:	48 89 c7             	mov    rdi,rax
    5598:	e8 e3 ec ff ff       	call   4280 <__assert_fail@plt>
    559d:	83 7d ac 00          	cmp    DWORD PTR [rbp-0x54],0x0
    55a1:	75 08                	jne    55ab <stbi__load_and_postprocess_8bit(stbi__context*, int*, int*, int*, int)+0xb5>
    55a3:	48 8b 45 b0          	mov    rax,QWORD PTR [rbp-0x50]
    55a7:	8b 00                	mov    eax,DWORD PTR [rax]
    55a9:	eb 03                	jmp    55ae <stbi__load_and_postprocess_8bit(stbi__context*, int*, int*, int*, int)+0xb8>
    55ab:	8b 45 ac             	mov    eax,DWORD PTR [rbp-0x54]
    55ae:	48 8b 55 b8          	mov    rdx,QWORD PTR [rbp-0x48]
    55b2:	8b 12                	mov    edx,DWORD PTR [rdx]
    55b4:	48 8b 4d c0          	mov    rcx,QWORD PTR [rbp-0x40]
    55b8:	8b 31                	mov    esi,DWORD PTR [rcx]
    55ba:	48 8b 7d e0          	mov    rdi,QWORD PTR [rbp-0x20]
    55be:	89 c1                	mov    ecx,eax
    55c0:	e8 b5 fb ff ff       	call   517a <stbi__convert_16_to_8(unsigned short*, int, int, int)>
    55c5:	48 89 45 e0          	mov    QWORD PTR [rbp-0x20],rax
    55c9:	c7 45 ec 08 00 00 00 	mov    DWORD PTR [rbp-0x14],0x8
    55d0:	64 8b 04 25 fc ff ff ff 	mov    eax,DWORD PTR fs:0xfffffffffffffffc
    55d8:	85 c0                	test   eax,eax
    55da:	74 0a                	je     55e6 <stbi__load_and_postprocess_8bit(stbi__context*, int*, int*, int*, int)+0xf0>
    55dc:	64 8b 04 25 f8 ff ff ff 	mov    eax,DWORD PTR fs:0xfffffffffffffff8
    55e4:	eb 06                	jmp    55ec <stbi__load_and_postprocess_8bit(stbi__context*, int*, int*, int*, int)+0xf6>
    55e6:	8b 05 88 51 04 00    	mov    eax,DWORD PTR [rip+0x45188]        # 4a774 <stbi__vertically_flip_on_load_global>
    55ec:	85 c0                	test   eax,eax
    55ee:	74 2f                	je     561f <stbi__load_and_postprocess_8bit(stbi__context*, int*, int*, int*, int)+0x129>
    55f0:	83 7d ac 00          	cmp    DWORD PTR [rbp-0x54],0x0
    55f4:	75 08                	jne    55fe <stbi__load_and_postprocess_8bit(stbi__context*, int*, int*, int*, int)+0x108>
    55f6:	48 8b 45 b0          	mov    rax,QWORD PTR [rbp-0x50]
    55fa:	8b 00                	mov    eax,DWORD PTR [rax]
    55fc:	eb 03                	jmp    5601 <stbi__load_and_postprocess_8bit(stbi__context*, int*, int*, int*, int)+0x10b>
    55fe:	8b 45 ac             	mov    eax,DWORD PTR [rbp-0x54]
    5601:	89 45 dc             	mov    DWORD PTR [rbp-0x24],eax
    5604:	48 8b 45 b8          	mov    rax,QWORD PTR [rbp-0x48]
    5608:	8b 10                	mov    edx,DWORD PTR [rax]
    560a:	48 8b 45 c0          	mov    rax,QWORD PTR [rbp-0x40]
    560e:	8b 30                	mov    esi,DWORD PTR [rax]
    5610:	8b 4d dc             	mov    ecx,DWORD PTR [rbp-0x24]
    5613:	48 8b 45 e0          	mov    rax,QWORD PTR [rbp-0x20]
    5617:	48 89 c7             	mov    rdi,rax
    561a:	e8 bb fc ff ff       	call   52da <stbi__vertical_flip(void*, int, int, int)>
    561f:	48 8b 45 e0          	mov    rax,QWORD PTR [rbp-0x20]
    5623:	48 8b 55 f8          	mov    rdx,QWORD PTR [rbp-0x8]
    5627:	64 48 2b 14 25 28 00 00 00 	sub    rdx,QWORD PTR fs:0x28
    5630:	74 05                	je     5637 <stbi__load_and_postprocess_8bit(stbi__context*, int*, int*, int*, int)+0x141>
    5632:	e8 a9 ee ff ff       	call   44e0 <__stack_chk_fail@plt>
    5637:	c9                   	leave  
    5638:	c3                   	ret    

0000000000005639 <stbi__load_and_postprocess_16bit(stbi__context*, int*, int*, int*, int)>:
    5639:	55                   	push   rbp
    563a:	48 89 e5             	mov    rbp,rsp
    563d:	48 83 ec 60          	sub    rsp,0x60
    5641:	48 89 7d c8          	mov    QWORD PTR [rbp-0x38],rdi
    5645:	48 89 75 c0          	mov    QWORD PTR [rbp-0x40],rsi
    5649:	48 89 55 b8          	mov    QWORD PTR [rbp-0x48],rdx
    564d:	48 89 4d b0          	mov    QWORD PTR [rbp-0x50],rcx
    5651:	44 89 45 ac          	mov    DWORD PTR [rbp-0x54],r8d
    5655:	64 48 8b 04 25 28 00 00 00 	mov    rax,QWORD PTR fs:0x28
    565e:	48 89 45 f8          	mov    QWORD PTR [rbp-0x8],rax
    5662:	31 c0                	xor    eax,eax
    5664:	4c 8d 45 ec          	lea    r8,[rbp-0x14]
    5668:	8b 7d ac             	mov    edi,DWORD PTR [rbp-0x54]
    566b:	48 8b 4d b0          	mov    rcx,QWORD PTR [rbp-0x50]
    566f:	48 8b 55 b8          	mov    rdx,QWORD PTR [rbp-0x48]
    5673:	48 8b 75 c0          	mov    rsi,QWORD PTR [rbp-0x40]
    5677:	48 8b 45 c8          	mov    rax,QWORD PTR [rbp-0x38]
    567b:	48 83 ec 08          	sub    rsp,0x8
    567f:	6a 10                	push   0x10
    5681:	4d 89 c1             	mov    r9,r8
    5684:	41 89 f8             	mov    r8d,edi
    5687:	48 89 c7             	mov    rdi,rax
    568a:	e8 1b f8 ff ff       	call   4eaa <stbi__load_main(stbi__context*, int*, int*, int*, int, stbi__result_info*, int)>
    568f:	48 83 c4 10          	add    rsp,0x10
    5693:	48 89 45 e0          	mov    QWORD PTR [rbp-0x20],rax
    5697:	48 83 7d e0 00       	cmp    QWORD PTR [rbp-0x20],0x0
    569c:	75 0a                	jne    56a8 <stbi__load_and_postprocess_16bit(stbi__context*, int*, int*, int*, int)+0x6f>
    569e:	b8 00 00 00 00       	mov    eax,0x0
    56a3:	e9 c4 00 00 00       	jmp    576c <stbi__load_and_postprocess_16bit(stbi__context*, int*, int*, int*, int)+0x133>
    56a8:	8b 45 ec             	mov    eax,DWORD PTR [rbp-0x14]
    56ab:	83 f8 10             	cmp    eax,0x10
    56ae:	74 63                	je     5713 <stbi__load_and_postprocess_16bit(stbi__context*, int*, int*, int*, int)+0xda>
    56b0:	8b 45 ec             	mov    eax,DWORD PTR [rbp-0x14]
    56b3:	83 f8 08             	cmp    eax,0x8
    56b6:	74 28                	je     56e0 <stbi__load_and_postprocess_16bit(stbi__context*, int*, int*, int*, int)+0xa7>
    56b8:	48 8d 05 19 4a 03 00 	lea    rax,[rip+0x34a19]        # 3a0d8 <_IO_stdin_used+0xd8>
    56bf:	48 89 c1             	mov    rcx,rax
    56c2:	ba af 04 00 00       	mov    edx,0x4af
    56c7:	48 8d 05 ca 49 03 00 	lea    rax,[rip+0x349ca]        # 3a098 <_IO_stdin_used+0x98>
    56ce:	48 89 c6             	mov    rsi,rax
    56d1:	48 8d 05 56 4a 03 00 	lea    rax,[rip+0x34a56]        # 3a12e <_IO_stdin_used+0x12e>
    56d8:	48 89 c7             	mov    rdi,rax
    56db:	e8 a0 eb ff ff       	call   4280 <__assert_fail@plt>
    56e0:	83 7d ac 00          	cmp    DWORD PTR [rbp-0x54],0x0
    56e4:	75 08                	jne    56ee <stbi__load_and_postprocess_16bit(stbi__context*, int*, int*, int*, int)+0xb5>
    56e6:	48 8b 45 b0          	mov    rax,QWORD PTR [rbp-0x50]
    56ea:	8b 00                	mov    eax,DWORD PTR [rax]
    56ec:	eb 03                	jmp    56f1 <stbi__load_and_postprocess_16bit(stbi__context*, int*, int*, int*, int)+0xb8>
    56ee:	8b 45 ac             	mov    eax,DWORD PTR [rbp-0x54]
    56f1:	48 8b 55 b8          	mov    rdx,QWORD PTR [rbp-0x48]
    56f5:	8b 12                	mov    edx,DWORD PTR [rdx]
    56f7:	48 8b 4d c0          	mov    rcx,QWORD PTR [rbp-0x40]
    56fb:	8b 31                	mov    esi,DWORD PTR [rcx]
    56fd:	48 8b 7d e0          	mov    rdi,QWORD PTR [rbp-0x20]
    5701:	89 c1                	mov    ecx,eax
    5703:	e8 16 fb ff ff       	call   521e <stbi__convert_8_to_16(unsigned char*, int, int, int)>
    5708:	48 89 45 e0          	mov    QWORD PTR [rbp-0x20],rax
    570c:	c7 45 ec 10 00 00 00 	mov    DWORD PTR [rbp-0x14],0x10
    5713:	64 8b 04 25 fc ff ff ff 	mov    eax,DWORD PTR fs:0xfffffffffffffffc
    571b:	85 c0                	test   eax,eax
    571d:	74 0a                	je     5729 <stbi__load_and_postprocess_16bit(stbi__context*, int*, int*, int*, int)+0xf0>
    571f:	64 8b 04 25 f8 ff ff ff 	mov    eax,DWORD PTR fs:0xfffffffffffffff8
    5727:	eb 06                	jmp    572f <stbi__load_and_postprocess_16bit(stbi__context*, int*, int*, int*, int)+0xf6>
    5729:	8b 05 45 50 04 00    	mov    eax,DWORD PTR [rip+0x45045]        # 4a774 <stbi__vertically_flip_on_load_global>
    572f:	85 c0                	test   eax,eax
    5731:	74 35                	je     5768 <stbi__load_and_postprocess_16bit(stbi__context*, int*, int*, int*, int)+0x12f>
    5733:	83 7d ac 00          	cmp    DWORD PTR [rbp-0x54],0x0
    5737:	75 08                	jne    5741 <stbi__load_and_postprocess_16bit(stbi__context*, int*, int*, int*, int)+0x108>
    5739:	48 8b 45 b0          	mov    rax,QWORD PTR [rbp-0x50]
    573d:	8b 00                	mov    eax,DWORD PTR [rax]
    573f:	eb 03                	jmp    5744 <stbi__load_and_postprocess_16bit(stbi__context*, int*, int*, int*, int)+0x10b>
    5741:	8b 45 ac             	mov    eax,DWORD PTR [rbp-0x54]
    5744:	89 45 dc             	mov    DWORD PTR [rbp-0x24],eax
    5747:	8b 45 dc             	mov    eax,DWORD PTR [rbp-0x24]
    574a:	48 98                	cdqe   
    574c:	01 c0                	add    eax,eax
    574e:	89 c1                	mov    ecx,eax
    5750:	48 8b 45 b8          	mov    rax,QWORD PTR [rbp-0x48]
    5754:	8b 10                	mov    edx,DWORD PTR [rax]
    5756:	48 8b 45 c0          	mov    rax,QWORD PTR [rbp-0x40]
    575a:	8b 30                	mov    esi,DWORD PTR [rax]
    575c:	48 8b 45 e0          	mov    rax,QWORD PTR [rbp-0x20]
    5760:	48 89 c7             	mov    rdi,rax
    5763:	e8 72 fb ff ff       	call   52da <stbi__vertical_flip(void*, int, int, int)>
    5768:	48 8b 45 e0          	mov    rax,QWORD PTR [rbp-0x20]
    576c:	48 8b 55 f8          	mov    rdx,QWORD PTR [rbp-0x8]
    5770:	64 48 2b 14 25 28 00 00 00 	sub    rdx,QWORD PTR fs:0x28
    5779:	74 05                	je     5780 <stbi__load_and_postprocess_16bit(stbi__context*, int*, int*, int*, int)+0x147>
    577b:	e8 60 ed ff ff       	call   44e0 <__stack_chk_fail@plt>
    5780:	c9                   	leave  
    5781:	c3                   	ret    

0000000000005782 <stbi__float_postprocess(float*, int*, int*, int*, int)>:
    5782:	55                   	push   rbp
    5783:	48 89 e5             	mov    rbp,rsp
    5786:	48 83 ec 40          	sub    rsp,0x40
    578a:	48 89 7d e8          	mov    QWORD PTR [rbp-0x18],rdi
    578e:	48 89 75 e0          	mov    QWORD PTR [rbp-0x20],rsi
    5792:	48 89 55 d8          	mov    QWORD PTR [rbp-0x28],rdx
    5796:	48 89 4d d0          	mov    QWORD PTR [rbp-0x30],rcx
    579a:	44 89 45 cc          	mov    DWORD PTR [rbp-0x34],r8d
    579e:	64 8b 04 25 fc ff ff ff 	mov    eax,DWORD PTR fs:0xfffffffffffffffc
    57a6:	85 c0                	test   eax,eax
    57a8:	74 0a                	je     57b4 <stbi__float_postprocess(float*, int*, int*, int*, int)+0x32>
    57aa:	64 8b 04 25 f8 ff ff ff 	mov    eax,DWORD PTR fs:0xfffffffffffffff8
    57b2:	eb 06                	jmp    57ba <stbi__float_postprocess(float*, int*, int*, int*, int)+0x38>
    57b4:	8b 05 ba 4f 04 00    	mov    eax,DWORD PTR [rip+0x44fba]        # 4a774 <stbi__vertically_flip_on_load_global>
    57ba:	85 c0                	test   eax,eax
    57bc:	74 3d                	je     57fb <stbi__float_postprocess(float*, int*, int*, int*, int)+0x79>
    57be:	48 83 7d e8 00       	cmp    QWORD PTR [rbp-0x18],0x0
    57c3:	74 36                	je     57fb <stbi__float_postprocess(float*, int*, int*, int*, int)+0x79>
    57c5:	83 7d cc 00          	cmp    DWORD PTR [rbp-0x34],0x0
    57c9:	75 08                	jne    57d3 <stbi__float_postprocess(float*, int*, int*, int*, int)+0x51>
    57cb:	48 8b 45 d0          	mov    rax,QWORD PTR [rbp-0x30]
    57cf:	8b 00                	mov    eax,DWORD PTR [rax]
    57d1:	eb 03                	jmp    57d6 <stbi__float_postprocess(float*, int*, int*, int*, int)+0x54>
    57d3:	8b 45 cc             	mov    eax,DWORD PTR [rbp-0x34]
    57d6:	89 45 fc             	mov    DWORD PTR [rbp-0x4],eax
    57d9:	8b 45 fc             	mov    eax,DWORD PTR [rbp-0x4]
    57dc:	48 98                	cdqe   
    57de:	c1 e0 02             	shl    eax,0x2
    57e1:	89 c1                	mov    ecx,eax
    57e3:	48 8b 45 d8          	mov    rax,QWORD PTR [rbp-0x28]
    57e7:	8b 10                	mov    edx,DWORD PTR [rax]
    57e9:	48 8b 45 e0          	mov    rax,QWORD PTR [rbp-0x20]
    57ed:	8b 30                	mov    esi,DWORD PTR [rax]
    57ef:	48 8b 45 e8          	mov    rax,QWORD PTR [rbp-0x18]
    57f3:	48 89 c7             	mov    rdi,rax
    57f6:	e8 df fa ff ff       	call   52da <stbi__vertical_flip(void*, int, int, int)>
    57fb:	90                   	nop
    57fc:	c9                   	leave  
    57fd:	c3                   	ret    

00000000000057fe <stbi__fopen(char const*, char const*)>:
    57fe:	55                   	push   rbp
    57ff:	48 89 e5             	mov    rbp,rsp
    5802:	48 83 ec 20          	sub    rsp,0x20
    5806:	48 89 7d e8          	mov    QWORD PTR [rbp-0x18],rdi
    580a:	48 89 75 e0          	mov    QWORD PTR [rbp-0x20],rsi
    580e:	48 8b 55 e0          	mov    rdx,QWORD PTR [rbp-0x20]
    5812:	48 8b 45 e8          	mov    rax,QWORD PTR [rbp-0x18]
    5816:	48 89 d6             	mov    rsi,rdx
    5819:	48 89 c7             	mov    rdi,rax
    581c:	e8 ff ec ff ff       	call   4520 <fopen@plt>
    5821:	48 89 45 f8          	mov    QWORD PTR [rbp-0x8],rax
    5825:	48 8b 45 f8          	mov    rax,QWORD PTR [rbp-0x8]
    5829:	c9                   	leave  
    582a:	c3                   	ret    

000000000000582b <stbi_load>:
    582b:	55                   	push   rbp
    582c:	48 89 e5             	mov    rbp,rsp
    582f:	48 83 ec 40          	sub    rsp,0x40
    5833:	48 89 7d e8          	mov    QWORD PTR [rbp-0x18],rdi
    5837:	48 89 75 e0          	mov    QWORD PTR [rbp-0x20],rsi
    583b:	48 89 55 d8          	mov    QWORD PTR [rbp-0x28],rdx
    583f:	48 89 4d d0          	mov    QWORD PTR [rbp-0x30],rcx
    5843:	44 89 45 cc          	mov    DWORD PTR [rbp-0x34],r8d
    5847:	48 8b 45 e8          	mov    rax,QWORD PTR [rbp-0x18]
    584b:	48 8d 15 f5 48 03 00 	lea    rdx,[rip+0x348f5]        # 3a147 <_IO_stdin_used+0x147>
    5852:	48 89 d6             	mov    rsi,rdx
    5855:	48 89 c7             	mov    rdi,rax
    5858:	e8 a1 ff ff ff       	call   57fe <stbi__fopen(char const*, char const*)>
    585d:	48 89 45 f0          	mov    QWORD PTR [rbp-0x10],rax
    5861:	48 83 7d f0 00       	cmp    QWORD PTR [rbp-0x10],0x0
    5866:	75 16                	jne    587e <stbi_load+0x53>
    5868:	48 8d 05 db 48 03 00 	lea    rax,[rip+0x348db]        # 3a14a <_IO_stdin_used+0x14a>
    586f:	48 89 c7             	mov    rdi,rax
    5872:	e8 fb f2 ff ff       	call   4b72 <stbi__err(char const*)>
    5877:	b8 00 00 00 00       	mov    eax,0x0
    587c:	eb 32                	jmp    58b0 <stbi_load+0x85>
    587e:	8b 7d cc             	mov    edi,DWORD PTR [rbp-0x34]
    5881:	48 8b 4d d0          	mov    rcx,QWORD PTR [rbp-0x30]
    5885:	48 8b 55 d8          	mov    rdx,QWORD PTR [rbp-0x28]
    5889:	48 8b 75 e0          	mov    rsi,QWORD PTR [rbp-0x20]
    588d:	48 8b 45 f0          	mov    rax,QWORD PTR [rbp-0x10]
    5891:	41 89 f8             	mov    r8d,edi
    5894:	48 89 c7             	mov    rdi,rax
    5897:	e8 16 00 00 00       	call   58b2 <stbi_load_from_file>
    589c:	48 89 45 f8          	mov    QWORD PTR [rbp-0x8],rax
    58a0:	48 8b 45 f0          	mov    rax,QWORD PTR [rbp-0x10]
    58a4:	48 89 c7             	mov    rdi,rax
    58a7:	e8 74 eb ff ff       	call   4420 <fclose@plt>
    58ac:	48 8b 45 f8          	mov    rax,QWORD PTR [rbp-0x8]
    58b0:	c9                   	leave  
    58b1:	c3                   	ret    

00000000000058b2 <stbi_load_from_file>:
    58b2:	55                   	push   rbp
    58b3:	48 89 e5             	mov    rbp,rsp
    58b6:	48 81 ec 20 01 00 00 	sub    rsp,0x120
    58bd:	48 89 bd 08 ff ff ff 	mov    QWORD PTR [rbp-0xf8],rdi
    58c4:	48 89 b5 00 ff ff ff 	mov    QWORD PTR [rbp-0x100],rsi
    58cb:	48 89 95 f8 fe ff ff 	mov    QWORD PTR [rbp-0x108],rdx
    58d2:	48 89 8d f0 fe ff ff 	mov    QWORD PTR [rbp-0x110],rcx
    58d9:	44 89 85 ec fe ff ff 	mov    DWORD PTR [rbp-0x114],r8d
    58e0:	64 48 8b 04 25 28 00 00 00 	mov    rax,QWORD PTR fs:0x28
    58e9:	48 89 45 f8          	mov    QWORD PTR [rbp-0x8],rax
    58ed:	31 c0                	xor    eax,eax
    58ef:	48 8b 95 08 ff ff ff 	mov    rdx,QWORD PTR [rbp-0xf8]
    58f6:	48 8d 85 20 ff ff ff 	lea    rax,[rbp-0xe0]
    58fd:	48 89 d6             	mov    rsi,rdx
    5900:	48 89 c7             	mov    rdi,rax
    5903:	e8 f7 f1 ff ff       	call   4aff <stbi__start_file(stbi__context*, _IO_FILE*)>
    5908:	8b bd ec fe ff ff    	mov    edi,DWORD PTR [rbp-0x114]
    590e:	48 8b 8d f0 fe ff ff 	mov    rcx,QWORD PTR [rbp-0x110]
    5915:	48 8b 95 f8 fe ff ff 	mov    rdx,QWORD PTR [rbp-0x108]
    591c:	48 8b b5 00 ff ff ff 	mov    rsi,QWORD PTR [rbp-0x100]
    5923:	48 8d 85 20 ff ff ff 	lea    rax,[rbp-0xe0]
    592a:	41 89 f8             	mov    r8d,edi
    592d:	48 89 c7             	mov    rdi,rax
    5930:	e8 c1 fb ff ff       	call   54f6 <stbi__load_and_postprocess_8bit(stbi__context*, int*, int*, int*, int)>
    5935:	48 89 85 18 ff ff ff 	mov    QWORD PTR [rbp-0xe8],rax
    593c:	48 83 bd 18 ff ff ff 00 	cmp    QWORD PTR [rbp-0xe8],0x0
    5944:	74 27                	je     596d <stbi_load_from_file+0xbb>
    5946:	48 8b 45 e0          	mov    rax,QWORD PTR [rbp-0x20]
    594a:	48 8b 55 d8          	mov    rdx,QWORD PTR [rbp-0x28]
    594e:	48 29 d0             	sub    rax,rdx
    5951:	f7 d8                	neg    eax
    5953:	48 63 c8             	movsxd rcx,eax
    5956:	48 8b 85 08 ff ff ff 	mov    rax,QWORD PTR [rbp-0xf8]
    595d:	ba 01 00 00 00       	mov    edx,0x1
    5962:	48 89 ce             	mov    rsi,rcx
    5965:	48 89 c7             	mov    rdi,rax
    5968:	e8 63 eb ff ff       	call   44d0 <fseek@plt>
    596d:	48 8b 85 18 ff ff ff 	mov    rax,QWORD PTR [rbp-0xe8]
    5974:	48 8b 55 f8          	mov    rdx,QWORD PTR [rbp-0x8]
    5978:	64 48 2b 14 25 28 00 00 00 	sub    rdx,QWORD PTR fs:0x28
    5981:	74 05                	je     5988 <stbi_load_from_file+0xd6>
    5983:	e8 58 eb ff ff       	call   44e0 <__stack_chk_fail@plt>
    5988:	c9                   	leave  
    5989:	c3                   	ret    

000000000000598a <stbi_load_from_file_16>:
    598a:	55                   	push   rbp
    598b:	48 89 e5             	mov    rbp,rsp
    598e:	48 81 ec 20 01 00 00 	sub    rsp,0x120
    5995:	48 89 bd 08 ff ff ff 	mov    QWORD PTR [rbp-0xf8],rdi
    599c:	48 89 b5 00 ff ff ff 	mov    QWORD PTR [rbp-0x100],rsi
    59a3:	48 89 95 f8 fe ff ff 	mov    QWORD PTR [rbp-0x108],rdx
    59aa:	48 89 8d f0 fe ff ff 	mov    QWORD PTR [rbp-0x110],rcx
    59b1:	44 89 85 ec fe ff ff 	mov    DWORD PTR [rbp-0x114],r8d
    59b8:	64 48 8b 04 25 28 00 00 00 	mov    rax,QWORD PTR fs:0x28
    59c1:	48 89 45 f8          	mov    QWORD PTR [rbp-0x8],rax
    59c5:	31 c0                	xor    eax,eax
    59c7:	48 8b 95 08 ff ff ff 	mov    rdx,QWORD PTR [rbp-0xf8]
    59ce:	48 8d 85 20 ff ff ff 	lea    rax,[rbp-0xe0]
    59d5:	48 89 d6             	mov    rsi,rdx
    59d8:	48 89 c7             	mov    rdi,rax
    59db:	e8 1f f1 ff ff       	call   4aff <stbi__start_file(stbi__context*, _IO_FILE*)>
    59e0:	8b bd ec fe ff ff    	mov    edi,DWORD PTR [rbp-0x114]
    59e6:	48 8b 8d f0 fe ff ff 	mov    rcx,QWORD PTR [rbp-0x110]
    59ed:	48 8b 95 f8 fe ff ff 	mov    rdx,QWORD PTR [rbp-0x108]
    59f4:	48 8b b5 00 ff ff ff 	mov    rsi,QWORD PTR [rbp-0x100]
    59fb:	48 8d 85 20 ff ff ff 	lea    rax,[rbp-0xe0]
    5a02:	41 89 f8             	mov    r8d,edi
    5a05:	48 89 c7             	mov    rdi,rax
    5a08:	e8 2c fc ff ff       	call   5639 <stbi__load_and_postprocess_16bit(stbi__context*, int*, int*, int*, int)>
    5a0d:	48 89 85 18 ff ff ff 	mov    QWORD PTR [rbp-0xe8],rax
    5a14:	48 83 bd 18 ff ff ff 00 	cmp    QWORD PTR [rbp-0xe8],0x0
    5a1c:	74 27                	je     5a45 <stbi_load_from_file_16+0xbb>
    5a1e:	48 8b 45 e0          	mov    rax,QWORD PTR [rbp-0x20]
    5a22:	48 8b 55 d8          	mov    rdx,QWORD PTR [rbp-0x28]
    5a26:	48 29 d0             	sub    rax,rdx
    5a29:	f7 d8                	neg    eax
    5a2b:	48 63 c8             	movsxd rcx,eax
    5a2e:	48 8b 85 08 ff ff ff 	mov    rax,QWORD PTR [rbp-0xf8]
    5a35:	ba 01 00 00 00       	mov    edx,0x1
    5a3a:	48 89 ce             	mov    rsi,rcx
    5a3d:	48 89 c7             	mov    rdi,rax
    5a40:	e8 8b ea ff ff       	call   44d0 <fseek@plt>
    5a45:	48 8b 85 18 ff ff ff 	mov    rax,QWORD PTR [rbp-0xe8]
    5a4c:	48 8b 55 f8          	mov    rdx,QWORD PTR [rbp-0x8]
    5a50:	64 48 2b 14 25 28 00 00 00 	sub    rdx,QWORD PTR fs:0x28
    5a59:	74 05                	je     5a60 <stbi_load_from_file_16+0xd6>
    5a5b:	e8 80 ea ff ff       	call   44e0 <__stack_chk_fail@plt>
    5a60:	c9                   	leave  
    5a61:	c3                   	ret    

0000000000005a62 <stbi_load_16>:
    5a62:	55                   	push   rbp
    5a63:	48 89 e5             	mov    rbp,rsp
    5a66:	48 83 ec 40          	sub    rsp,0x40
    5a6a:	48 89 7d e8          	mov    QWORD PTR [rbp-0x18],rdi
    5a6e:	48 89 75 e0          	mov    QWORD PTR [rbp-0x20],rsi
    5a72:	48 89 55 d8          	mov    QWORD PTR [rbp-0x28],rdx
    5a76:	48 89 4d d0          	mov    QWORD PTR [rbp-0x30],rcx
    5a7a:	44 89 45 cc          	mov    DWORD PTR [rbp-0x34],r8d
    5a7e:	48 8b 45 e8          	mov    rax,QWORD PTR [rbp-0x18]
    5a82:	48 8d 15 be 46 03 00 	lea    rdx,[rip+0x346be]        # 3a147 <_IO_stdin_used+0x147>
    5a89:	48 89 d6             	mov    rsi,rdx
    5a8c:	48 89 c7             	mov    rdi,rax
    5a8f:	e8 6a fd ff ff       	call   57fe <stbi__fopen(char const*, char const*)>
    5a94:	48 89 45 f0          	mov    QWORD PTR [rbp-0x10],rax
    5a98:	48 83 7d f0 00       	cmp    QWORD PTR [rbp-0x10],0x0
    5a9d:	75 16                	jne    5ab5 <stbi_load_16+0x53>
    5a9f:	48 8d 05 a4 46 03 00 	lea    rax,[rip+0x346a4]        # 3a14a <_IO_stdin_used+0x14a>
    5aa6:	48 89 c7             	mov    rdi,rax
    5aa9:	e8 c4 f0 ff ff       	call   4b72 <stbi__err(char const*)>
    5aae:	b8 00 00 00 00       	mov    eax,0x0
    5ab3:	eb 32                	jmp    5ae7 <stbi_load_16+0x85>
    5ab5:	8b 7d cc             	mov    edi,DWORD PTR [rbp-0x34]
    5ab8:	48 8b 4d d0          	mov    rcx,QWORD PTR [rbp-0x30]
    5abc:	48 8b 55 d8          	mov    rdx,QWORD PTR [rbp-0x28]
    5ac0:	48 8b 75 e0          	mov    rsi,QWORD PTR [rbp-0x20]
    5ac4:	48 8b 45 f0          	mov    rax,QWORD PTR [rbp-0x10]
    5ac8:	41 89 f8             	mov    r8d,edi
    5acb:	48 89 c7             	mov    rdi,rax
    5ace:	e8 b7 fe ff ff       	call   598a <stbi_load_from_file_16>
    5ad3:	48 89 45 f8          	mov    QWORD PTR [rbp-0x8],rax
    5ad7:	48 8b 45 f0          	mov    rax,QWORD PTR [rbp-0x10]
    5adb:	48 89 c7             	mov    rdi,rax
    5ade:	e8 3d e9 ff ff       	call   4420 <fclose@plt>
    5ae3:	48 8b 45 f8          	mov    rax,QWORD PTR [rbp-0x8]
    5ae7:	c9                   	leave  
    5ae8:	c3                   	ret    

0000000000005ae9 <stbi_load_16_from_memory>:
    5ae9:	55                   	push   rbp
    5aea:	48 89 e5             	mov    rbp,rsp
    5aed:	48 81 ec 10 01 00 00 	sub    rsp,0x110
    5af4:	48 89 bd 18 ff ff ff 	mov    QWORD PTR [rbp-0xe8],rdi
    5afb:	89 b5 14 ff ff ff    	mov    DWORD PTR [rbp-0xec],esi
    5b01:	48 89 95 08 ff ff ff 	mov    QWORD PTR [rbp-0xf8],rdx
    5b08:	48 89 8d 00 ff ff ff 	mov    QWORD PTR [rbp-0x100],rcx
    5b0f:	4c 89 85 f8 fe ff ff 	mov    QWORD PTR [rbp-0x108],r8
    5b16:	44 89 8d 10 ff ff ff 	mov    DWORD PTR [rbp-0xf0],r9d
    5b1d:	64 48 8b 04 25 28 00 00 00 	mov    rax,QWORD PTR fs:0x28
    5b26:	48 89 45 f8          	mov    QWORD PTR [rbp-0x8],rax
    5b2a:	31 c0                	xor    eax,eax
    5b2c:	8b 95 14 ff ff ff    	mov    edx,DWORD PTR [rbp-0xec]
    5b32:	48 8b 8d 18 ff ff ff 	mov    rcx,QWORD PTR [rbp-0xe8]
    5b39:	48 8d 85 20 ff ff ff 	lea    rax,[rbp-0xe0]
    5b40:	48 89 ce             	mov    rsi,rcx
    5b43:	48 89 c7             	mov    rdi,rax
    5b46:	e8 35 ee ff ff       	call   4980 <stbi__start_mem(stbi__context*, unsigned char const*, int)>
    5b4b:	8b bd 10 ff ff ff    	mov    edi,DWORD PTR [rbp-0xf0]
    5b51:	48 8b 8d f8 fe ff ff 	mov    rcx,QWORD PTR [rbp-0x108]
    5b58:	48 8b 95 00 ff ff ff 	mov    rdx,QWORD PTR [rbp-0x100]
    5b5f:	48 8b b5 08 ff ff ff 	mov    rsi,QWORD PTR [rbp-0xf8]
    5b66:	48 8d 85 20 ff ff ff 	lea    rax,[rbp-0xe0]
    5b6d:	41 89 f8             	mov    r8d,edi
    5b70:	48 89 c7             	mov    rdi,rax
    5b73:	e8 c1 fa ff ff       	call   5639 <stbi__load_and_postprocess_16bit(stbi__context*, int*, int*, int*, int)>
    5b78:	48 8b 55 f8          	mov    rdx,QWORD PTR [rbp-0x8]
    5b7c:	64 48 2b 14 25 28 00 00 00 	sub    rdx,QWORD PTR fs:0x28
    5b85:	74 05                	je     5b8c <stbi_load_16_from_memory+0xa3>
    5b87:	e8 54 e9 ff ff       	call   44e0 <__stack_chk_fail@plt>
    5b8c:	c9                   	leave  
    5b8d:	c3                   	ret    

0000000000005b8e <stbi_load_16_from_callbacks>:
    5b8e:	55                   	push   rbp
    5b8f:	48 89 e5             	mov    rbp,rsp
    5b92:	48 81 ec 10 01 00 00 	sub    rsp,0x110
    5b99:	48 89 bd 18 ff ff ff 	mov    QWORD PTR [rbp-0xe8],rdi
    5ba0:	48 89 b5 10 ff ff ff 	mov    QWORD PTR [rbp-0xf0],rsi
    5ba7:	48 89 95 08 ff ff ff 	mov    QWORD PTR [rbp-0xf8],rdx
    5bae:	48 89 8d 00 ff ff ff 	mov    QWORD PTR [rbp-0x100],rcx
    5bb5:	4c 89 85 f8 fe ff ff 	mov    QWORD PTR [rbp-0x108],r8
    5bbc:	44 89 8d f4 fe ff ff 	mov    DWORD PTR [rbp-0x10c],r9d
    5bc3:	64 48 8b 04 25 28 00 00 00 	mov    rax,QWORD PTR fs:0x28
    5bcc:	48 89 45 f8          	mov    QWORD PTR [rbp-0x8],rax
    5bd0:	31 c0                	xor    eax,eax
    5bd2:	48 8b 95 10 ff ff ff 	mov    rdx,QWORD PTR [rbp-0xf0]
    5bd9:	48 8b 8d 18 ff ff ff 	mov    rcx,QWORD PTR [rbp-0xe8]
    5be0:	48 8d 85 20 ff ff ff 	lea    rax,[rbp-0xe0]
    5be7:	48 89 ce             	mov    rsi,rcx
    5bea:	48 89 c7             	mov    rdi,rax
    5bed:	e8 0a ee ff ff       	call   49fc <stbi__start_callbacks(stbi__context*, stbi_io_callbacks*, void*)>
    5bf2:	8b bd f4 fe ff ff    	mov    edi,DWORD PTR [rbp-0x10c]
    5bf8:	48 8b 8d f8 fe ff ff 	mov    rcx,QWORD PTR [rbp-0x108]
    5bff:	48 8b 95 00 ff ff ff 	mov    rdx,QWORD PTR [rbp-0x100]
    5c06:	48 8b b5 08 ff ff ff 	mov    rsi,QWORD PTR [rbp-0xf8]
    5c0d:	48 8d 85 20 ff ff ff 	lea    rax,[rbp-0xe0]
    5c14:	41 89 f8             	mov    r8d,edi
    5c17:	48 89 c7             	mov    rdi,rax
    5c1a:	e8 1a fa ff ff       	call   5639 <stbi__load_and_postprocess_16bit(stbi__context*, int*, int*, int*, int)>
    5c1f:	48 8b 55 f8          	mov    rdx,QWORD PTR [rbp-0x8]
    5c23:	64 48 2b 14 25 28 00 00 00 	sub    rdx,QWORD PTR fs:0x28
    5c2c:	74 05                	je     5c33 <stbi_load_16_from_callbacks+0xa5>
    5c2e:	e8 ad e8 ff ff       	call   44e0 <__stack_chk_fail@plt>
    5c33:	c9                   	leave  
    5c34:	c3                   	ret    

0000000000005c35 <stbi_load_from_memory>:
    5c35:	55                   	push   rbp
    5c36:	48 89 e5             	mov    rbp,rsp
    5c39:	48 81 ec 10 01 00 00 	sub    rsp,0x110
    5c40:	48 89 bd 18 ff ff ff 	mov    QWORD PTR [rbp-0xe8],rdi
    5c47:	89 b5 14 ff ff ff    	mov    DWORD PTR [rbp-0xec],esi
    5c4d:	48 89 95 08 ff ff ff 	mov    QWORD PTR [rbp-0xf8],rdx
    5c54:	48 89 8d 00 ff ff ff 	mov    QWORD PTR [rbp-0x100],rcx
    5c5b:	4c 89 85 f8 fe ff ff 	mov    QWORD PTR [rbp-0x108],r8
    5c62:	44 89 8d 10 ff ff ff 	mov    DWORD PTR [rbp-0xf0],r9d
    5c69:	64 48 8b 04 25 28 00 00 00 	mov    rax,QWORD PTR fs:0x28
    5c72:	48 89 45 f8          	mov    QWORD PTR [rbp-0x8],rax
    5c76:	31 c0                	xor    eax,eax
    5c78:	8b 95 14 ff ff ff    	mov    edx,DWORD PTR [rbp-0xec]
    5c7e:	48 8b 8d 18 ff ff ff 	mov    rcx,QWORD PTR [rbp-0xe8]
    5c85:	48 8d 85 20 ff ff ff 	lea    rax,[rbp-0xe0]
    5c8c:	48 89 ce             	mov    rsi,rcx
    5c8f:	48 89 c7             	mov    rdi,rax
    5c92:	e8 e9 ec ff ff       	call   4980 <stbi__start_mem(stbi__context*, unsigned char const*, int)>
    5c97:	8b bd 10 ff ff ff    	mov    edi,DWORD PTR [rbp-0xf0]
    5c9d:	48 8b 8d f8 fe ff ff 	mov    rcx,QWORD PTR [rbp-0x108]
    5ca4:	48 8b 95 00 ff ff ff 	mov    rdx,QWORD PTR [rbp-0x100]
    5cab:	48 8b b5 08 ff ff ff 	mov    rsi,QWORD PTR [rbp-0xf8]
    5cb2:	48 8d 85 20 ff ff ff 	lea    rax,[rbp-0xe0]
    5cb9:	41 89 f8             	mov    r8d,edi
    5cbc:	48 89 c7             	mov    rdi,rax
    5cbf:	e8 32 f8 ff ff       	call   54f6 <stbi__load_and_postprocess_8bit(stbi__context*, int*, int*, int*, int)>
    5cc4:	48 8b 55 f8          	mov    rdx,QWORD PTR [rbp-0x8]
    5cc8:	64 48 2b 14 25 28 00 00 00 	sub    rdx,QWORD PTR fs:0x28
    5cd1:	74 05                	je     5cd8 <stbi_load_from_memory+0xa3>
    5cd3:	e8 08 e8 ff ff       	call   44e0 <__stack_chk_fail@plt>
    5cd8:	c9                   	leave  
    5cd9:	c3                   	ret    

0000000000005cda <stbi_load_from_callbacks>:
    5cda:	55                   	push   rbp
    5cdb:	48 89 e5             	mov    rbp,rsp
    5cde:	48 81 ec 10 01 00 00 	sub    rsp,0x110
    5ce5:	48 89 bd 18 ff ff ff 	mov    QWORD PTR [rbp-0xe8],rdi
    5cec:	48 89 b5 10 ff ff ff 	mov    QWORD PTR [rbp-0xf0],rsi
    5cf3:	48 89 95 08 ff ff ff 	mov    QWORD PTR [rbp-0xf8],rdx
    5cfa:	48 89 8d 00 ff ff ff 	mov    QWORD PTR [rbp-0x100],rcx
    5d01:	4c 89 85 f8 fe ff ff 	mov    QWORD PTR [rbp-0x108],r8
    5d08:	44 89 8d f4 fe ff ff 	mov    DWORD PTR [rbp-0x10c],r9d
    5d0f:	64 48 8b 04 25 28 00 00 00 	mov    rax,QWORD PTR fs:0x28
    5d18:	48 89 45 f8          	mov    QWORD PTR [rbp-0x8],rax
    5d1c:	31 c0                	xor    eax,eax
    5d1e:	48 8b 95 10 ff ff ff 	mov    rdx,QWORD PTR [rbp-0xf0]
    5d25:	48 8b 8d 18 ff ff ff 	mov    rcx,QWORD PTR [rbp-0xe8]
    5d2c:	48 8d 85 20 ff ff ff 	lea    rax,[rbp-0xe0]
    5d33:	48 89 ce             	mov    rsi,rcx
    5d36:	48 89 c7             	mov    rdi,rax
    5d39:	e8 be ec ff ff       	call   49fc <stbi__start_callbacks(stbi__context*, stbi_io_callbacks*, void*)>
    5d3e:	8b bd f4 fe ff ff    	mov    edi,DWORD PTR [rbp-0x10c]
    5d44:	48 8b 8d f8 fe ff ff 	mov    rcx,QWORD PTR [rbp-0x108]
    5d4b:	48 8b 95 00 ff ff ff 	mov    rdx,QWORD PTR [rbp-0x100]
    5d52:	48 8b b5 08 ff ff ff 	mov    rsi,QWORD PTR [rbp-0xf8]
    5d59:	48 8d 85 20 ff ff ff 	lea    rax,[rbp-0xe0]
    5d60:	41 89 f8             	mov    r8d,edi
    5d63:	48 89 c7             	mov    rdi,rax
    5d66:	e8 8b f7 ff ff       	call   54f6 <stbi__load_and_postprocess_8bit(stbi__context*, int*, int*, int*, int)>
    5d6b:	48 8b 55 f8          	mov    rdx,QWORD PTR [rbp-0x8]
    5d6f:	64 48 2b 14 25 28 00 00 00 	sub    rdx,QWORD PTR fs:0x28
    5d78:	74 05                	je     5d7f <stbi_load_from_callbacks+0xa5>
    5d7a:	e8 61 e7 ff ff       	call   44e0 <__stack_chk_fail@plt>
    5d7f:	c9                   	leave  
    5d80:	c3                   	ret    

0000000000005d81 <stbi_load_gif_from_memory>:
    5d81:	55                   	push   rbp
    5d82:	48 89 e5             	mov    rbp,rsp
    5d85:	48 81 ec 30 01 00 00 	sub    rsp,0x130
    5d8c:	48 89 bd 08 ff ff ff 	mov    QWORD PTR [rbp-0xf8],rdi
    5d93:	89 b5 04 ff ff ff    	mov    DWORD PTR [rbp-0xfc],esi
    5d99:	48 89 95 f8 fe ff ff 	mov    QWORD PTR [rbp-0x108],rdx
    5da0:	48 89 8d f0 fe ff ff 	mov    QWORD PTR [rbp-0x110],rcx
    5da7:	4c 89 85 e8 fe ff ff 	mov    QWORD PTR [rbp-0x118],r8
    5dae:	4c 89 8d e0 fe ff ff 	mov    QWORD PTR [rbp-0x120],r9
    5db5:	48 8b 45 10          	mov    rax,QWORD PTR [rbp+0x10]
    5db9:	48 89 85 d8 fe ff ff 	mov    QWORD PTR [rbp-0x128],rax
    5dc0:	64 48 8b 04 25 28 00 00 00 	mov    rax,QWORD PTR fs:0x28
    5dc9:	48 89 45 f8          	mov    QWORD PTR [rbp-0x8],rax
    5dcd:	31 c0                	xor    eax,eax
    5dcf:	8b 95 04 ff ff ff    	mov    edx,DWORD PTR [rbp-0xfc]
    5dd5:	48 8b 8d 08 ff ff ff 	mov    rcx,QWORD PTR [rbp-0xf8]
    5ddc:	48 8d 85 20 ff ff ff 	lea    rax,[rbp-0xe0]
    5de3:	48 89 ce             	mov    rsi,rcx
    5de6:	48 89 c7             	mov    rdi,rax
    5de9:	e8 92 eb ff ff       	call   4980 <stbi__start_mem(stbi__context*, unsigned char const*, int)>
    5dee:	4c 8b 8d d8 fe ff ff 	mov    r9,QWORD PTR [rbp-0x128]
    5df5:	4c 8b 85 e0 fe ff ff 	mov    r8,QWORD PTR [rbp-0x120]
    5dfc:	48 8b 8d e8 fe ff ff 	mov    rcx,QWORD PTR [rbp-0x118]
    5e03:	48 8b 95 f0 fe ff ff 	mov    rdx,QWORD PTR [rbp-0x110]
    5e0a:	48 8b b5 f8 fe ff ff 	mov    rsi,QWORD PTR [rbp-0x108]
    5e11:	48 8d 85 20 ff ff ff 	lea    rax,[rbp-0xe0]
    5e18:	48 83 ec 08          	sub    rsp,0x8
    5e1c:	8b 7d 18             	mov    edi,DWORD PTR [rbp+0x18]
    5e1f:	57                   	push   rdi
    5e20:	48 89 c7             	mov    rdi,rax
    5e23:	e8 03 6e 01 00       	call   1cc2b <stbi__load_gif_main(stbi__context*, int**, int*, int*, int*, int*, int)>
    5e28:	48 83 c4 10          	add    rsp,0x10
    5e2c:	48 89 85 18 ff ff ff 	mov    QWORD PTR [rbp-0xe8],rax
    5e33:	64 8b 04 25 fc ff ff ff 	mov    eax,DWORD PTR fs:0xfffffffffffffffc
    5e3b:	85 c0                	test   eax,eax
    5e3d:	74 0a                	je     5e49 <stbi_load_gif_from_memory+0xc8>
    5e3f:	64 8b 04 25 f8 ff ff ff 	mov    eax,DWORD PTR fs:0xfffffffffffffff8
    5e47:	eb 06                	jmp    5e4f <stbi_load_gif_from_memory+0xce>
    5e49:	8b 05 25 49 04 00    	mov    eax,DWORD PTR [rip+0x44925]        # 4a774 <stbi__vertically_flip_on_load_global>
    5e4f:	85 c0                	test   eax,eax
    5e51:	74 36                	je     5e89 <stbi_load_gif_from_memory+0x108>
    5e53:	48 8b 85 d8 fe ff ff 	mov    rax,QWORD PTR [rbp-0x128]
    5e5a:	8b 38                	mov    edi,DWORD PTR [rax]
    5e5c:	48 8b 85 e0 fe ff ff 	mov    rax,QWORD PTR [rbp-0x120]
    5e63:	8b 08                	mov    ecx,DWORD PTR [rax]
    5e65:	48 8b 85 e8 fe ff ff 	mov    rax,QWORD PTR [rbp-0x118]
    5e6c:	8b 10                	mov    edx,DWORD PTR [rax]
    5e6e:	48 8b 85 f0 fe ff ff 	mov    rax,QWORD PTR [rbp-0x110]
    5e75:	8b 30                	mov    esi,DWORD PTR [rax]
    5e77:	48 8b 85 18 ff ff ff 	mov    rax,QWORD PTR [rbp-0xe8]
    5e7e:	41 89 f8             	mov    r8d,edi
    5e81:	48 89 c7             	mov    rdi,rax
    5e84:	e8 05 f6 ff ff       	call   548e <stbi__vertical_flip_slices(void*, int, int, int, int)>
    5e89:	48 8b 85 18 ff ff ff 	mov    rax,QWORD PTR [rbp-0xe8]
    5e90:	48 8b 55 f8          	mov    rdx,QWORD PTR [rbp-0x8]
    5e94:	64 48 2b 14 25 28 00 00 00 	sub    rdx,QWORD PTR fs:0x28
    5e9d:	74 05                	je     5ea4 <stbi_load_gif_from_memory+0x123>
    5e9f:	e8 3c e6 ff ff       	call   44e0 <__stack_chk_fail@plt>
    5ea4:	c9                   	leave  
    5ea5:	c3                   	ret    

0000000000005ea6 <stbi__loadf_main(stbi__context*, int*, int*, int*, int)>:
    5ea6:	55                   	push   rbp
    5ea7:	48 89 e5             	mov    rbp,rsp
    5eaa:	48 83 ec 60          	sub    rsp,0x60
    5eae:	48 89 7d c8          	mov    QWORD PTR [rbp-0x38],rdi
    5eb2:	48 89 75 c0          	mov    QWORD PTR [rbp-0x40],rsi
    5eb6:	48 89 55 b8          	mov    QWORD PTR [rbp-0x48],rdx
    5eba:	48 89 4d b0          	mov    QWORD PTR [rbp-0x50],rcx
    5ebe:	44 89 45 ac          	mov    DWORD PTR [rbp-0x54],r8d
    5ec2:	64 48 8b 04 25 28 00 00 00 	mov    rax,QWORD PTR fs:0x28
    5ecb:	48 89 45 f8          	mov    QWORD PTR [rbp-0x8],rax
    5ecf:	31 c0                	xor    eax,eax
    5ed1:	48 8b 45 c8          	mov    rax,QWORD PTR [rbp-0x38]
    5ed5:	48 89 c7             	mov    rdi,rax
    5ed8:	e8 28 73 01 00       	call   1d205 <stbi__hdr_test(stbi__context*)>
    5edd:	85 c0                	test   eax,eax
    5edf:	0f 95 c0             	setne  al
    5ee2:	84 c0                	test   al,al
    5ee4:	74 54                	je     5f3a <stbi__loadf_main(stbi__context*, int*, int*, int*, int)+0x94>
    5ee6:	4c 8d 45 ec          	lea    r8,[rbp-0x14]
    5eea:	8b 7d ac             	mov    edi,DWORD PTR [rbp-0x54]
    5eed:	48 8b 4d b0          	mov    rcx,QWORD PTR [rbp-0x50]
    5ef1:	48 8b 55 b8          	mov    rdx,QWORD PTR [rbp-0x48]
    5ef5:	48 8b 75 c0          	mov    rsi,QWORD PTR [rbp-0x40]
    5ef9:	48 8b 45 c8          	mov    rax,QWORD PTR [rbp-0x38]
    5efd:	4d 89 c1             	mov    r9,r8
    5f00:	41 89 f8             	mov    r8d,edi
    5f03:	48 89 c7             	mov    rdi,rax
    5f06:	e8 04 76 01 00       	call   1d50f <stbi__hdr_load(stbi__context*, int*, int*, int*, int, stbi__result_info*)>
    5f0b:	48 89 45 e0          	mov    QWORD PTR [rbp-0x20],rax
    5f0f:	48 83 7d e0 00       	cmp    QWORD PTR [rbp-0x20],0x0
    5f14:	74 1e                	je     5f34 <stbi__loadf_main(stbi__context*, int*, int*, int*, int)+0x8e>
    5f16:	8b 7d ac             	mov    edi,DWORD PTR [rbp-0x54]
    5f19:	48 8b 4d b0          	mov    rcx,QWORD PTR [rbp-0x50]
    5f1d:	48 8b 55 b8          	mov    rdx,QWORD PTR [rbp-0x48]
    5f21:	48 8b 75 c0          	mov    rsi,QWORD PTR [rbp-0x40]
    5f25:	48 8b 45 e0          	mov    rax,QWORD PTR [rbp-0x20]
    5f29:	41 89 f8             	mov    r8d,edi
    5f2c:	48 89 c7             	mov    rdi,rax
    5f2f:	e8 4e f8 ff ff       	call   5782 <stbi__float_postprocess(float*, int*, int*, int*, int)>
    5f34:	48 8b 45 e0          	mov    rax,QWORD PTR [rbp-0x20]
    5f38:	eb 67                	jmp    5fa1 <stbi__loadf_main(stbi__context*, int*, int*, int*, int)+0xfb>
    5f3a:	8b 7d ac             	mov    edi,DWORD PTR [rbp-0x54]
    5f3d:	48 8b 4d b0          	mov    rcx,QWORD PTR [rbp-0x50]
    5f41:	48 8b 55 b8          	mov    rdx,QWORD PTR [rbp-0x48]
    5f45:	48 8b 75 c0          	mov    rsi,QWORD PTR [rbp-0x40]
    5f49:	48 8b 45 c8          	mov    rax,QWORD PTR [rbp-0x38]
    5f4d:	41 89 f8             	mov    r8d,edi
    5f50:	48 89 c7             	mov    rdi,rax
    5f53:	e8 9e f5 ff ff       	call   54f6 <stbi__load_and_postprocess_8bit(stbi__context*, int*, int*, int*, int)>
    5f58:	48 89 45 d8          	mov    QWORD PTR [rbp-0x28],rax
    5f5c:	48 83 7d d8 00       	cmp    QWORD PTR [rbp-0x28],0x0
    5f61:	74 2a                	je     5f8d <stbi__loadf_main(stbi__context*, int*, int*, int*, int)+0xe7>
    5f63:	83 7d ac 00          	cmp    DWORD PTR [rbp-0x54],0x0
    5f67:	75 08                	jne    5f71 <stbi__loadf_main(stbi__context*, int*, int*, int*, int)+0xcb>
    5f69:	48 8b 45 b0          	mov    rax,QWORD PTR [rbp-0x50]
    5f6d:	8b 00                	mov    eax,DWORD PTR [rax]
    5f6f:	eb 03                	jmp    5f74 <stbi__loadf_main(stbi__context*, int*, int*, int*, int)+0xce>
    5f71:	8b 45 ac             	mov    eax,DWORD PTR [rbp-0x54]
    5f74:	48 8b 55 b8          	mov    rdx,QWORD PTR [rbp-0x48]
    5f78:	8b 12                	mov    edx,DWORD PTR [rdx]
    5f7a:	48 8b 4d c0          	mov    rcx,QWORD PTR [rbp-0x40]
    5f7e:	8b 31                	mov    esi,DWORD PTR [rcx]
    5f80:	48 8b 7d d8          	mov    rdi,QWORD PTR [rbp-0x28]
    5f84:	89 c1                	mov    ecx,eax
    5f86:	e8 75 14 00 00       	call   7400 <stbi__ldr_to_hdr(unsigned char*, int, int, int)>
    5f8b:	eb 14                	jmp    5fa1 <stbi__loadf_main(stbi__context*, int*, int*, int*, int)+0xfb>
    5f8d:	48 8d 05 8c 40 03 00 	lea    rax,[rip+0x3408c]        # 3a020 <_IO_stdin_used+0x20>
    5f94:	48 89 c7             	mov    rdi,rax
    5f97:	e8 d6 eb ff ff       	call   4b72 <stbi__err(char const*)>
    5f9c:	b8 00 00 00 00       	mov    eax,0x0
    5fa1:	48 8b 55 f8          	mov    rdx,QWORD PTR [rbp-0x8]
    5fa5:	64 48 2b 14 25 28 00 00 00 	sub    rdx,QWORD PTR fs:0x28
    5fae:	74 05                	je     5fb5 <stbi__loadf_main(stbi__context*, int*, int*, int*, int)+0x10f>
    5fb0:	e8 2b e5 ff ff       	call   44e0 <__stack_chk_fail@plt>
    5fb5:	c9                   	leave  
    5fb6:	c3                   	ret    

0000000000005fb7 <stbi_loadf_from_memory>:
    5fb7:	55                   	push   rbp
    5fb8:	48 89 e5             	mov    rbp,rsp
    5fbb:	48 81 ec 10 01 00 00 	sub    rsp,0x110
    5fc2:	48 89 bd 18 ff ff ff 	mov    QWORD PTR [rbp-0xe8],rdi
    5fc9:	89 b5 14 ff ff ff    	mov    DWORD PTR [rbp-0xec],esi
    5fcf:	48 89 95 08 ff ff ff 	mov    QWORD PTR [rbp-0xf8],rdx
    5fd6:	48 89 8d 00 ff ff ff 	mov    QWORD PTR [rbp-0x100],rcx
    5fdd:	4c 89 85 f8 fe ff ff 	mov    QWORD PTR [rbp-0x108],r8
    5fe4:	44 89 8d 10 ff ff ff 	mov    DWORD PTR [rbp-0xf0],r9d
    5feb:	64 48 8b 04 25 28 00 00 00 	mov    rax,QWORD PTR fs:0x28
    5ff4:	48 89 45 f8          	mov    QWORD PTR [rbp-0x8],rax
    5ff8:	31 c0                	xor    eax,eax
    5ffa:	8b 95 14 ff ff ff    	mov    edx,DWORD PTR [rbp-0xec]
    6000:	48 8b 8d 18 ff ff ff 	mov    rcx,QWORD PTR [rbp-0xe8]
    6007:	48 8d 85 20 ff ff ff 	lea    rax,[rbp-0xe0]
    600e:	48 89 ce             	mov    rsi,rcx
    6011:	48 89 c7             	mov    rdi,rax
    6014:	e8 67 e9 ff ff       	call   4980 <stbi__start_mem(stbi__context*, unsigned char const*, int)>
    6019:	8b bd 10 ff ff ff    	mov    edi,DWORD PTR [rbp-0xf0]
    601f:	48 8b 8d f8 fe ff ff 	mov    rcx,QWORD PTR [rbp-0x108]
    6026:	48 8b 95 00 ff ff ff 	mov    rdx,QWORD PTR [rbp-0x100]
    602d:	48 8b b5 08 ff ff ff 	mov    rsi,QWORD PTR [rbp-0xf8]
    6034:	48 8d 85 20 ff ff ff 	lea    rax,[rbp-0xe0]
    603b:	41 89 f8             	mov    r8d,edi
    603e:	48 89 c7             	mov    rdi,rax
    6041:	e8 60 fe ff ff       	call   5ea6 <stbi__loadf_main(stbi__context*, int*, int*, int*, int)>
    6046:	48 8b 55 f8          	mov    rdx,QWORD PTR [rbp-0x8]
    604a:	64 48 2b 14 25 28 00 00 00 	sub    rdx,QWORD PTR fs:0x28
    6053:	74 05                	je     605a <stbi_loadf_from_memory+0xa3>
    6055:	e8 86 e4 ff ff       	call   44e0 <__stack_chk_fail@plt>
    605a:	c9                   	leave  
    605b:	c3                   	ret    

000000000000605c <stbi_loadf_from_callbacks>:
    605c:	55                   	push   rbp
    605d:	48 89 e5             	mov    rbp,rsp
    6060:	48 81 ec 10 01 00 00 	sub    rsp,0x110
    6067:	48 89 bd 18 ff ff ff 	mov    QWORD PTR [rbp-0xe8],rdi
    606e:	48 89 b5 10 ff ff ff 	mov    QWORD PTR [rbp-0xf0],rsi
    6075:	48 89 95 08 ff ff ff 	mov    QWORD PTR [rbp-0xf8],rdx
    607c:	48 89 8d 00 ff ff ff 	mov    QWORD PTR [rbp-0x100],rcx
    6083:	4c 89 85 f8 fe ff ff 	mov    QWORD PTR [rbp-0x108],r8
    608a:	44 89 8d f4 fe ff ff 	mov    DWORD PTR [rbp-0x10c],r9d
    6091:	64 48 8b 04 25 28 00 00 00 	mov    rax,QWORD PTR fs:0x28
    609a:	48 89 45 f8          	mov    QWORD PTR [rbp-0x8],rax
    609e:	31 c0                	xor    eax,eax
    60a0:	48 8b 95 10 ff ff ff 	mov    rdx,QWORD PTR [rbp-0xf0]
    60a7:	48 8b 8d 18 ff ff ff 	mov    rcx,QWORD PTR [rbp-0xe8]
    60ae:	48 8d 85 20 ff ff ff 	lea    rax,[rbp-0xe0]
    60b5:	48 89 ce             	mov    rsi,rcx
    60b8:	48 89 c7             	mov    rdi,rax
    60bb:	e8 3c e9 ff ff       	call   49fc <stbi__start_callbacks(stbi__context*, stbi_io_callbacks*, void*)>
    60c0:	8b bd f4 fe ff ff    	mov    edi,DWORD PTR [rbp-0x10c]
    60c6:	48 8b 8d f8 fe ff ff 	mov    rcx,QWORD PTR [rbp-0x108]
    60cd:	48 8b 95 00 ff ff ff 	mov    rdx,QWORD PTR [rbp-0x100]
    60d4:	48 8b b5 08 ff ff ff 	mov    rsi,QWORD PTR [rbp-0xf8]
    60db:	48 8d 85 20 ff ff ff 	lea    rax,[rbp-0xe0]
    60e2:	41 89 f8             	mov    r8d,edi
    60e5:	48 89 c7             	mov    rdi,rax
    60e8:	e8 b9 fd ff ff       	call   5ea6 <stbi__loadf_main(stbi__context*, int*, int*, int*, int)>
    60ed:	48 8b 55 f8          	mov    rdx,QWORD PTR [rbp-0x8]
    60f1:	64 48 2b 14 25 28 00 00 00 	sub    rdx,QWORD PTR fs:0x28
    60fa:	74 05                	je     6101 <stbi_loadf_from_callbacks+0xa5>
    60fc:	e8 df e3 ff ff       	call   44e0 <__stack_chk_fail@plt>
    6101:	c9                   	leave  
    6102:	c3                   	ret    

0000000000006103 <stbi_loadf>:
    6103:	55                   	push   rbp
    6104:	48 89 e5             	mov    rbp,rsp
    6107:	48 83 ec 40          	sub    rsp,0x40
    610b:	48 89 7d e8          	mov    QWORD PTR [rbp-0x18],rdi
    610f:	48 89 75 e0          	mov    QWORD PTR [rbp-0x20],rsi
    6113:	48 89 55 d8          	mov    QWORD PTR [rbp-0x28],rdx
    6117:	48 89 4d d0          	mov    QWORD PTR [rbp-0x30],rcx
    611b:	44 89 45 cc          	mov    DWORD PTR [rbp-0x34],r8d
    611f:	48 8b 45 e8          	mov    rax,QWORD PTR [rbp-0x18]
    6123:	48 8d 15 1d 40 03 00 	lea    rdx,[rip+0x3401d]        # 3a147 <_IO_stdin_used+0x147>
    612a:	48 89 d6             	mov    rsi,rdx
    612d:	48 89 c7             	mov    rdi,rax
    6130:	e8 c9 f6 ff ff       	call   57fe <stbi__fopen(char const*, char const*)>
    6135:	48 89 45 f0          	mov    QWORD PTR [rbp-0x10],rax
    6139:	48 83 7d f0 00       	cmp    QWORD PTR [rbp-0x10],0x0
    613e:	75 16                	jne    6156 <stbi_loadf+0x53>
    6140:	48 8d 05 03 40 03 00 	lea    rax,[rip+0x34003]        # 3a14a <_IO_stdin_used+0x14a>
    6147:	48 89 c7             	mov    rdi,rax
    614a:	e8 23 ea ff ff       	call   4b72 <stbi__err(char const*)>
    614f:	b8 00 00 00 00       	mov    eax,0x0
    6154:	eb 32                	jmp    6188 <stbi_loadf+0x85>
    6156:	8b 7d cc             	mov    edi,DWORD PTR [rbp-0x34]
    6159:	48 8b 4d d0          	mov    rcx,QWORD PTR [rbp-0x30]
    615d:	48 8b 55 d8          	mov    rdx,QWORD PTR [rbp-0x28]
    6161:	48 8b 75 e0          	mov    rsi,QWORD PTR [rbp-0x20]
    6165:	48 8b 45 f0          	mov    rax,QWORD PTR [rbp-0x10]
    6169:	41 89 f8             	mov    r8d,edi
    616c:	48 89 c7             	mov    rdi,rax
    616f:	e8 16 00 00 00       	call   618a <stbi_loadf_from_file>
    6174:	48 89 45 f8          	mov    QWORD PTR [rbp-0x8],rax
    6178:	48 8b 45 f0          	mov    rax,QWORD PTR [rbp-0x10]
    617c:	48 89 c7             	mov    rdi,rax
    617f:	e8 9c e2 ff ff       	call   4420 <fclose@plt>
    6184:	48 8b 45 f8          	mov    rax,QWORD PTR [rbp-0x8]
    6188:	c9                   	leave  
    6189:	c3                   	ret    

000000000000618a <stbi_loadf_from_file>:
    618a:	55                   	push   rbp
    618b:	48 89 e5             	mov    rbp,rsp
    618e:	48 81 ec 10 01 00 00 	sub    rsp,0x110
    6195:	48 89 bd 18 ff ff ff 	mov    QWORD PTR [rbp-0xe8],rdi
    619c:	48 89 b5 10 ff ff ff 	mov    QWORD PTR [rbp-0xf0],rsi
    61a3:	48 89 95 08 ff ff ff 	mov    QWORD PTR [rbp-0xf8],rdx
    61aa:	48 89 8d 00 ff ff ff 	mov    QWORD PTR [rbp-0x100],rcx
    61b1:	44 89 85 fc fe ff ff 	mov    DWORD PTR [rbp-0x104],r8d
    61b8:	64 48 8b 04 25 28 00 00 00 	mov    rax,QWORD PTR fs:0x28
    61c1:	48 89 45 f8          	mov    QWORD PTR [rbp-0x8],rax
    61c5:	31 c0                	xor    eax,eax
    61c7:	48 8b 95 18 ff ff ff 	mov    rdx,QWORD PTR [rbp-0xe8]
    61ce:	48 8d 85 20 ff ff ff 	lea    rax,[rbp-0xe0]
    61d5:	48 89 d6             	mov    rsi,rdx
    61d8:	48 89 c7             	mov    rdi,rax
    61db:	e8 1f e9 ff ff       	call   4aff <stbi__start_file(stbi__context*, _IO_FILE*)>
    61e0:	8b bd fc fe ff ff    	mov    edi,DWORD PTR [rbp-0x104]
    61e6:	48 8b 8d 00 ff ff ff 	mov    rcx,QWORD PTR [rbp-0x100]
    61ed:	48 8b 95 08 ff ff ff 	mov    rdx,QWORD PTR [rbp-0xf8]
    61f4:	48 8b b5 10 ff ff ff 	mov    rsi,QWORD PTR [rbp-0xf0]
    61fb:	48 8d 85 20 ff ff ff 	lea    rax,[rbp-0xe0]
    6202:	41 89 f8             	mov    r8d,edi
    6205:	48 89 c7             	mov    rdi,rax
    6208:	e8 99 fc ff ff       	call   5ea6 <stbi__loadf_main(stbi__context*, int*, int*, int*, int)>
    620d:	48 8b 55 f8          	mov    rdx,QWORD PTR [rbp-0x8]
    6211:	64 48 2b 14 25 28 00 00 00 	sub    rdx,QWORD PTR fs:0x28
    621a:	74 05                	je     6221 <stbi_loadf_from_file+0x97>
    621c:	e8 bf e2 ff ff       	call   44e0 <__stack_chk_fail@plt>
    6221:	c9                   	leave  
    6222:	c3                   	ret    

0000000000006223 <stbi_is_hdr_from_memory>:
    6223:	55                   	push   rbp
    6224:	48 89 e5             	mov    rbp,rsp
    6227:	48 81 ec f0 00 00 00 	sub    rsp,0xf0
    622e:	48 89 bd 18 ff ff ff 	mov    QWORD PTR [rbp-0xe8],rdi
    6235:	89 b5 14 ff ff ff    	mov    DWORD PTR [rbp-0xec],esi
    623b:	64 48 8b 04 25 28 00 00 00 	mov    rax,QWORD PTR fs:0x28
    6244:	48 89 45 f8          	mov    QWORD PTR [rbp-0x8],rax
    6248:	31 c0                	xor    eax,eax
    624a:	8b 95 14 ff ff ff    	mov    edx,DWORD PTR [rbp-0xec]
    6250:	48 8b 8d 18 ff ff ff 	mov    rcx,QWORD PTR [rbp-0xe8]
    6257:	48 8d 85 20 ff ff ff 	lea    rax,[rbp-0xe0]
    625e:	48 89 ce             	mov    rsi,rcx
    6261:	48 89 c7             	mov    rdi,rax
    6264:	e8 17 e7 ff ff       	call   4980 <stbi__start_mem(stbi__context*, unsigned char const*, int)>
    6269:	48 8d 85 20 ff ff ff 	lea    rax,[rbp-0xe0]
    6270:	48 89 c7             	mov    rdi,rax
    6273:	e8 8d 6f 01 00       	call   1d205 <stbi__hdr_test(stbi__context*)>
    6278:	48 8b 55 f8          	mov    rdx,QWORD PTR [rbp-0x8]
    627c:	64 48 2b 14 25 28 00 00 00 	sub    rdx,QWORD PTR fs:0x28
    6285:	74 05                	je     628c <stbi_is_hdr_from_memory+0x69>
    6287:	e8 54 e2 ff ff       	call   44e0 <__stack_chk_fail@plt>
    628c:	c9                   	leave  
    628d:	c3                   	ret    

000000000000628e <stbi_is_hdr>:
    628e:	55                   	push   rbp
    628f:	48 89 e5             	mov    rbp,rsp
    6292:	48 83 ec 20          	sub    rsp,0x20
    6296:	48 89 7d e8          	mov    QWORD PTR [rbp-0x18],rdi
    629a:	48 8b 45 e8          	mov    rax,QWORD PTR [rbp-0x18]
    629e:	48 8d 15 a2 3e 03 00 	lea    rdx,[rip+0x33ea2]        # 3a147 <_IO_stdin_used+0x147>
    62a5:	48 89 d6             	mov    rsi,rdx
    62a8:	48 89 c7             	mov    rdi,rax
    62ab:	e8 4e f5 ff ff       	call   57fe <stbi__fopen(char const*, char const*)>
    62b0:	48 89 45 f8          	mov    QWORD PTR [rbp-0x8],rax
    62b4:	c7 45 f4 00 00 00 00 	mov    DWORD PTR [rbp-0xc],0x0
    62bb:	48 83 7d f8 00       	cmp    QWORD PTR [rbp-0x8],0x0
    62c0:	74 1b                	je     62dd <stbi_is_hdr+0x4f>
    62c2:	48 8b 45 f8          	mov    rax,QWORD PTR [rbp-0x8]
    62c6:	48 89 c7             	mov    rdi,rax
    62c9:	e8 14 00 00 00       	call   62e2 <stbi_is_hdr_from_file>
    62ce:	89 45 f4             	mov    DWORD PTR [rbp-0xc],eax
    62d1:	48 8b 45 f8          	mov    rax,QWORD PTR [rbp-0x8]
    62d5:	48 89 c7             	mov    rdi,rax
    62d8:	e8 43 e1 ff ff       	call   4420 <fclose@plt>
    62dd:	8b 45 f4             	mov    eax,DWORD PTR [rbp-0xc]
    62e0:	c9                   	leave  
    62e1:	c3                   	ret    

00000000000062e2 <stbi_is_hdr_from_file>:
    62e2:	55                   	push   rbp
    62e3:	48 89 e5             	mov    rbp,rsp
    62e6:	48 81 ec 00 01 00 00 	sub    rsp,0x100
    62ed:	48 89 bd 08 ff ff ff 	mov    QWORD PTR [rbp-0xf8],rdi
    62f4:	64 48 8b 04 25 28 00 00 00 	mov    rax,QWORD PTR fs:0x28
    62fd:	48 89 45 f8          	mov    QWORD PTR [rbp-0x8],rax
    6301:	31 c0                	xor    eax,eax
    6303:	48 8b 85 08 ff ff ff 	mov    rax,QWORD PTR [rbp-0xf8]
    630a:	48 89 c7             	mov    rdi,rax
    630d:	e8 1e dd ff ff       	call   4030 <ftell@plt>
    6312:	48 89 85 18 ff ff ff 	mov    QWORD PTR [rbp-0xe8],rax
    6319:	48 8b 95 08 ff ff ff 	mov    rdx,QWORD PTR [rbp-0xf8]
    6320:	48 8d 85 20 ff ff ff 	lea    rax,[rbp-0xe0]
    6327:	48 89 d6             	mov    rsi,rdx
    632a:	48 89 c7             	mov    rdi,rax
    632d:	e8 cd e7 ff ff       	call   4aff <stbi__start_file(stbi__context*, _IO_FILE*)>
    6332:	48 8d 85 20 ff ff ff 	lea    rax,[rbp-0xe0]
    6339:	48 89 c7             	mov    rdi,rax
    633c:	e8 c4 6e 01 00       	call   1d205 <stbi__hdr_test(stbi__context*)>
    6341:	89 85 14 ff ff ff    	mov    DWORD PTR [rbp-0xec],eax
    6347:	48 8b 8d 18 ff ff ff 	mov    rcx,QWORD PTR [rbp-0xe8]
    634e:	48 8b 85 08 ff ff ff 	mov    rax,QWORD PTR [rbp-0xf8]
    6355:	ba 00 00 00 00       	mov    edx,0x0
    635a:	48 89 ce             	mov    rsi,rcx
    635d:	48 89 c7             	mov    rdi,rax
    6360:	e8 6b e1 ff ff       	call   44d0 <fseek@plt>
    6365:	8b 85 14 ff ff ff    	mov    eax,DWORD PTR [rbp-0xec]
    636b:	48 8b 55 f8          	mov    rdx,QWORD PTR [rbp-0x8]
    636f:	64 48 2b 14 25 28 00 00 00 	sub    rdx,QWORD PTR fs:0x28
    6378:	74 05                	je     637f <stbi_is_hdr_from_file+0x9d>
    637a:	e8 61 e1 ff ff       	call   44e0 <__stack_chk_fail@plt>
    637f:	c9                   	leave  
    6380:	c3                   	ret    

0000000000006381 <stbi_is_hdr_from_callbacks>:
    6381:	55                   	push   rbp
    6382:	48 89 e5             	mov    rbp,rsp
    6385:	48 81 ec f0 00 00 00 	sub    rsp,0xf0
    638c:	48 89 bd 18 ff ff ff 	mov    QWORD PTR [rbp-0xe8],rdi
    6393:	48 89 b5 10 ff ff ff 	mov    QWORD PTR [rbp-0xf0],rsi
    639a:	64 48 8b 04 25 28 00 00 00 	mov    rax,QWORD PTR fs:0x28
    63a3:	48 89 45 f8          	mov    QWORD PTR [rbp-0x8],rax
    63a7:	31 c0                	xor    eax,eax
    63a9:	48 8b 95 10 ff ff ff 	mov    rdx,QWORD PTR [rbp-0xf0]
    63b0:	48 8b 8d 18 ff ff ff 	mov    rcx,QWORD PTR [rbp-0xe8]
    63b7:	48 8d 85 20 ff ff ff 	lea    rax,[rbp-0xe0]
    63be:	48 89 ce             	mov    rsi,rcx
    63c1:	48 89 c7             	mov    rdi,rax
    63c4:	e8 33 e6 ff ff       	call   49fc <stbi__start_callbacks(stbi__context*, stbi_io_callbacks*, void*)>
    63c9:	48 8d 85 20 ff ff ff 	lea    rax,[rbp-0xe0]
    63d0:	48 89 c7             	mov    rdi,rax
    63d3:	e8 2d 6e 01 00       	call   1d205 <stbi__hdr_test(stbi__context*)>
    63d8:	48 8b 55 f8          	mov    rdx,QWORD PTR [rbp-0x8]
    63dc:	64 48 2b 14 25 28 00 00 00 	sub    rdx,QWORD PTR fs:0x28
    63e5:	74 05                	je     63ec <stbi_is_hdr_from_callbacks+0x6b>
    63e7:	e8 f4 e0 ff ff       	call   44e0 <__stack_chk_fail@plt>
    63ec:	c9                   	leave  
    63ed:	c3                   	ret    

00000000000063ee <stbi_ldr_to_hdr_gamma>:
    63ee:	55                   	push   rbp
    63ef:	48 89 e5             	mov    rbp,rsp
    63f2:	f3 0f 11 45 fc       	movss  DWORD PTR [rbp-0x4],xmm0
    63f7:	f3 0f 10 45 fc       	movss  xmm0,DWORD PTR [rbp-0x4]
    63fc:	f3 0f 11 05 3c 40 04 00 	movss  DWORD PTR [rip+0x4403c],xmm0        # 4a440 <stbi__l2h_gamma>
    6404:	90                   	nop
    6405:	5d                   	pop    rbp
    6406:	c3                   	ret    

0000000000006407 <stbi_ldr_to_hdr_scale>:
    6407:	55                   	push   rbp
    6408:	48 89 e5             	mov    rbp,rsp
    640b:	f3 0f 11 45 fc       	movss  DWORD PTR [rbp-0x4],xmm0
    6410:	f3 0f 10 45 fc       	movss  xmm0,DWORD PTR [rbp-0x4]
    6415:	f3 0f 11 05 27 40 04 00 	movss  DWORD PTR [rip+0x44027],xmm0        # 4a444 <stbi__l2h_scale>
    641d:	90                   	nop
    641e:	5d                   	pop    rbp
    641f:	c3                   	ret    

0000000000006420 <stbi_hdr_to_ldr_gamma>:
    6420:	55                   	push   rbp
    6421:	48 89 e5             	mov    rbp,rsp
    6424:	f3 0f 11 45 fc       	movss  DWORD PTR [rbp-0x4],xmm0
    6429:	f3 0f 10 05 13 66 03 00 	movss  xmm0,DWORD PTR [rip+0x36613]        # 3ca44 <NANO_SEC+0x177c>
    6431:	f3 0f 5e 45 fc       	divss  xmm0,DWORD PTR [rbp-0x4]
    6436:	f3 0f 11 05 0a 40 04 00 	movss  DWORD PTR [rip+0x4400a],xmm0        # 4a448 <stbi__h2l_gamma_i>
    643e:	90                   	nop
    643f:	5d                   	pop    rbp
    6440:	c3                   	ret    

0000000000006441 <stbi_hdr_to_ldr_scale>:
    6441:	55                   	push   rbp
    6442:	48 89 e5             	mov    rbp,rsp
    6445:	f3 0f 11 45 fc       	movss  DWORD PTR [rbp-0x4],xmm0
    644a:	f3 0f 10 05 f2 65 03 00 	movss  xmm0,DWORD PTR [rip+0x365f2]        # 3ca44 <NANO_SEC+0x177c>
    6452:	f3 0f 5e 45 fc       	divss  xmm0,DWORD PTR [rbp-0x4]
    6457:	f3 0f 11 05 ed 3f 04 00 	movss  DWORD PTR [rip+0x43fed],xmm0        # 4a44c <stbi__h2l_scale_i>
    645f:	90                   	nop
    6460:	5d                   	pop    rbp
    6461:	c3                   	ret    

0000000000006462 <stbi__refill_buffer(stbi__context*)>:
    6462:	55                   	push   rbp
    6463:	48 89 e5             	mov    rbp,rsp
    6466:	48 83 ec 20          	sub    rsp,0x20
    646a:	48 89 7d e8          	mov    QWORD PTR [rbp-0x18],rdi
    646e:	48 8b 45 e8          	mov    rax,QWORD PTR [rbp-0x18]
    6472:	48 8b 48 10          	mov    rcx,QWORD PTR [rax+0x10]
    6476:	48 8b 45 e8          	mov    rax,QWORD PTR [rbp-0x18]
    647a:	8b 50 34             	mov    edx,DWORD PTR [rax+0x34]
    647d:	48 8b 45 e8          	mov    rax,QWORD PTR [rbp-0x18]
    6481:	48 8d 70 38          	lea    rsi,[rax+0x38]
    6485:	48 8b 45 e8          	mov    rax,QWORD PTR [rbp-0x18]
    6489:	48 8b 40 28          	mov    rax,QWORD PTR [rax+0x28]
    648d:	48 89 c7             	mov    rdi,rax
    6490:	ff d1                	call   rcx
    6492:	89 45 fc             	mov    DWORD PTR [rbp-0x4],eax
    6495:	83 7d fc 00          	cmp    DWORD PTR [rbp-0x4],0x0
    6499:	75 45                	jne    64e0 <stbi__refill_buffer(stbi__context*)+0x7e>
    649b:	48 8b 45 e8          	mov    rax,QWORD PTR [rbp-0x18]
    649f:	c7 40 30 00 00 00 00 	mov    DWORD PTR [rax+0x30],0x0
    64a6:	48 8b 45 e8          	mov    rax,QWORD PTR [rbp-0x18]
    64aa:	48 8d 50 38          	lea    rdx,[rax+0x38]
    64ae:	48 8b 45 e8          	mov    rax,QWORD PTR [rbp-0x18]
    64b2:	48 89 90 b8 00 00 00 	mov    QWORD PTR [rax+0xb8],rdx
    64b9:	48 8b 45 e8          	mov    rax,QWORD PTR [rbp-0x18]
    64bd:	48 83 c0 38          	add    rax,0x38
    64c1:	48 8d 50 01          	lea    rdx,[rax+0x1]
    64c5:	48 8b 45 e8          	mov    rax,QWORD PTR [rbp-0x18]
    64c9:	48 89 90 c0 00 00 00 	mov    QWORD PTR [rax+0xc0],rdx
    64d0:	48 8b 45 e8          	mov    rax,QWORD PTR [rbp-0x18]
    64d4:	48 8b 80 b8 00 00 00 	mov    rax,QWORD PTR [rax+0xb8]
    64db:	c6 00 00             	mov    BYTE PTR [rax],0x0
    64de:	eb 2e                	jmp    650e <stbi__refill_buffer(stbi__context*)+0xac>
    64e0:	48 8b 45 e8          	mov    rax,QWORD PTR [rbp-0x18]
    64e4:	48 8d 50 38          	lea    rdx,[rax+0x38]
    64e8:	48 8b 45 e8          	mov    rax,QWORD PTR [rbp-0x18]
    64ec:	48 89 90 b8 00 00 00 	mov    QWORD PTR [rax+0xb8],rdx
    64f3:	48 8b 45 e8          	mov    rax,QWORD PTR [rbp-0x18]
    64f7:	48 8d 50 38          	lea    rdx,[rax+0x38]
    64fb:	8b 45 fc             	mov    eax,DWORD PTR [rbp-0x4]
    64fe:	48 98                	cdqe   
    6500:	48 01 c2             	add    rdx,rax
    6503:	48 8b 45 e8          	mov    rax,QWORD PTR [rbp-0x18]
    6507:	48 89 90 c0 00 00 00 	mov    QWORD PTR [rax+0xc0],rdx
    650e:	90                   	nop
    650f:	c9                   	leave  
    6510:	c3                   	ret    

0000000000006511 <stbi__get8(stbi__context*)>:
    6511:	55                   	push   rbp
    6512:	48 89 e5             	mov    rbp,rsp
    6515:	48 83 ec 10          	sub    rsp,0x10
    6519:	48 89 7d f8          	mov    QWORD PTR [rbp-0x8],rdi
    651d:	48 8b 45 f8          	mov    rax,QWORD PTR [rbp-0x8]
    6521:	48 8b 90 b8 00 00 00 	mov    rdx,QWORD PTR [rax+0xb8]
    6528:	48 8b 45 f8          	mov    rax,QWORD PTR [rbp-0x8]
    652c:	48 8b 80 c0 00 00 00 	mov    rax,QWORD PTR [rax+0xc0]
    6533:	48 39 c2             	cmp    rdx,rax
    6536:	73 1f                	jae    6557 <stbi__get8(stbi__context*)+0x46>
    6538:	48 8b 45 f8          	mov    rax,QWORD PTR [rbp-0x8]
    653c:	48 8b 80 b8 00 00 00 	mov    rax,QWORD PTR [rax+0xb8]
    6543:	48 8d 48 01          	lea    rcx,[rax+0x1]
    6547:	48 8b 55 f8          	mov    rdx,QWORD PTR [rbp-0x8]
    654b:	48 89 8a b8 00 00 00 	mov    QWORD PTR [rdx+0xb8],rcx
    6552:	0f b6 00             	movzx  eax,BYTE PTR [rax]
    6555:	eb 3b                	jmp    6592 <stbi__get8(stbi__context*)+0x81>
    6557:	48 8b 45 f8          	mov    rax,QWORD PTR [rbp-0x8]
    655b:	8b 40 30             	mov    eax,DWORD PTR [rax+0x30]
    655e:	85 c0                	test   eax,eax
    6560:	74 2b                	je     658d <stbi__get8(stbi__context*)+0x7c>
    6562:	48 8b 45 f8          	mov    rax,QWORD PTR [rbp-0x8]
    6566:	48 89 c7             	mov    rdi,rax
    6569:	e8 f4 fe ff ff       	call   6462 <stbi__refill_buffer(stbi__context*)>
    656e:	48 8b 45 f8          	mov    rax,QWORD PTR [rbp-0x8]
    6572:	48 8b 80 b8 00 00 00 	mov    rax,QWORD PTR [rax+0xb8]
    6579:	48 8d 48 01          	lea    rcx,[rax+0x1]
    657d:	48 8b 55 f8          	mov    rdx,QWORD PTR [rbp-0x8]
    6581:	48 89 8a b8 00 00 00 	mov    QWORD PTR [rdx+0xb8],rcx
    6588:	0f b6 00             	movzx  eax,BYTE PTR [rax]
    658b:	eb 05                	jmp    6592 <stbi__get8(stbi__context*)+0x81>
    658d:	b8 00 00 00 00       	mov    eax,0x0
    6592:	c9                   	leave  
    6593:	c3                   	ret    

0000000000006594 <stbi__at_eof(stbi__context*)>:
    6594:	55                   	push   rbp
    6595:	48 89 e5             	mov    rbp,rsp
    6598:	48 83 ec 10          	sub    rsp,0x10
    659c:	48 89 7d f8          	mov    QWORD PTR [rbp-0x8],rdi
    65a0:	48 8b 45 f8          	mov    rax,QWORD PTR [rbp-0x8]
    65a4:	48 8b 40 10          	mov    rax,QWORD PTR [rax+0x10]
    65a8:	48 85 c0             	test   rax,rax
    65ab:	74 37                	je     65e4 <stbi__at_eof(stbi__context*)+0x50>
    65ad:	48 8b 45 f8          	mov    rax,QWORD PTR [rbp-0x8]
    65b1:	48 8b 50 20          	mov    rdx,QWORD PTR [rax+0x20]
    65b5:	48 8b 45 f8          	mov    rax,QWORD PTR [rbp-0x8]
    65b9:	48 8b 40 28          	mov    rax,QWORD PTR [rax+0x28]
    65bd:	48 89 c7             	mov    rdi,rax
    65c0:	ff d2                	call   rdx
    65c2:	85 c0                	test   eax,eax
    65c4:	0f 94 c0             	sete   al
    65c7:	84 c0                	test   al,al
    65c9:	74 07                	je     65d2 <stbi__at_eof(stbi__context*)+0x3e>
    65cb:	b8 00 00 00 00       	mov    eax,0x0
    65d0:	eb 31                	jmp    6603 <stbi__at_eof(stbi__context*)+0x6f>
    65d2:	48 8b 45 f8          	mov    rax,QWORD PTR [rbp-0x8]
    65d6:	8b 40 30             	mov    eax,DWORD PTR [rax+0x30]
    65d9:	85 c0                	test   eax,eax
    65db:	75 07                	jne    65e4 <stbi__at_eof(stbi__context*)+0x50>
    65dd:	b8 01 00 00 00       	mov    eax,0x1
    65e2:	eb 1f                	jmp    6603 <stbi__at_eof(stbi__context*)+0x6f>
    65e4:	48 8b 45 f8          	mov    rax,QWORD PTR [rbp-0x8]
    65e8:	48 8b 90 b8 00 00 00 	mov    rdx,QWORD PTR [rax+0xb8]
    65ef:	48 8b 45 f8          	mov    rax,QWORD PTR [rbp-0x8]
    65f3:	48 8b 80 c0 00 00 00 	mov    rax,QWORD PTR [rax+0xc0]
    65fa:	48 39 c2             	cmp    rdx,rax
    65fd:	0f 93 c0             	setae  al
    6600:	0f b6 c0             	movzx  eax,al
    6603:	c9                   	leave  
    6604:	c3                   	ret    

0000000000006605 <stbi__skip(stbi__context*, int)>:
    6605:	55                   	push   rbp
    6606:	48 89 e5             	mov    rbp,rsp
    6609:	48 83 ec 20          	sub    rsp,0x20
    660d:	48 89 7d e8          	mov    QWORD PTR [rbp-0x18],rdi
    6611:	89 75 e4             	mov    DWORD PTR [rbp-0x1c],esi
    6614:	83 7d e4 00          	cmp    DWORD PTR [rbp-0x1c],0x0
    6618:	79 1b                	jns    6635 <stbi__skip(stbi__context*, int)+0x30>
    661a:	48 8b 45 e8          	mov    rax,QWORD PTR [rbp-0x18]
    661e:	48 8b 90 c0 00 00 00 	mov    rdx,QWORD PTR [rax+0xc0]
    6625:	48 8b 45 e8          	mov    rax,QWORD PTR [rbp-0x18]
    6629:	48 89 90 b8 00 00 00 	mov    QWORD PTR [rax+0xb8],rdx
    6630:	e9 89 00 00 00       	jmp    66be <stbi__skip(stbi__context*, int)+0xb9>
    6635:	48 8b 45 e8          	mov    rax,QWORD PTR [rbp-0x18]
    6639:	48 8b 40 10          	mov    rax,QWORD PTR [rax+0x10]
    663d:	48 85 c0             	test   rax,rax
    6640:	74 5e                	je     66a0 <stbi__skip(stbi__context*, int)+0x9b>
    6642:	48 8b 45 e8          	mov    rax,QWORD PTR [rbp-0x18]
    6646:	48 8b 90 c0 00 00 00 	mov    rdx,QWORD PTR [rax+0xc0]
    664d:	48 8b 45 e8          	mov    rax,QWORD PTR [rbp-0x18]
    6651:	48 8b 88 b8 00 00 00 	mov    rcx,QWORD PTR [rax+0xb8]
    6658:	48 89 d0             	mov    rax,rdx
    665b:	48 29 c8             	sub    rax,rcx
    665e:	89 45 fc             	mov    DWORD PTR [rbp-0x4],eax
    6661:	8b 45 fc             	mov    eax,DWORD PTR [rbp-0x4]
    6664:	3b 45 e4             	cmp    eax,DWORD PTR [rbp-0x1c]
    6667:	7d 37                	jge    66a0 <stbi__skip(stbi__context*, int)+0x9b>
    6669:	48 8b 45 e8          	mov    rax,QWORD PTR [rbp-0x18]
    666d:	48 8b 90 c0 00 00 00 	mov    rdx,QWORD PTR [rax+0xc0]
    6674:	48 8b 45 e8          	mov    rax,QWORD PTR [rbp-0x18]
    6678:	48 89 90 b8 00 00 00 	mov    QWORD PTR [rax+0xb8],rdx
    667f:	48 8b 45 e8          	mov    rax,QWORD PTR [rbp-0x18]
    6683:	48 8b 48 18          	mov    rcx,QWORD PTR [rax+0x18]
    6687:	8b 45 e4             	mov    eax,DWORD PTR [rbp-0x1c]
    668a:	2b 45 fc             	sub    eax,DWORD PTR [rbp-0x4]
    668d:	89 c2                	mov    edx,eax
    668f:	48 8b 45 e8          	mov    rax,QWORD PTR [rbp-0x18]
    6693:	48 8b 40 28          	mov    rax,QWORD PTR [rax+0x28]
    6697:	89 d6                	mov    esi,edx
    6699:	48 89 c7             	mov    rdi,rax
    669c:	ff d1                	call   rcx
    669e:	eb 1e                	jmp    66be <stbi__skip(stbi__context*, int)+0xb9>
    66a0:	48 8b 45 e8          	mov    rax,QWORD PTR [rbp-0x18]
    66a4:	48 8b 90 b8 00 00 00 	mov    rdx,QWORD PTR [rax+0xb8]
    66ab:	8b 45 e4             	mov    eax,DWORD PTR [rbp-0x1c]
    66ae:	48 98                	cdqe   
    66b0:	48 01 c2             	add    rdx,rax
    66b3:	48 8b 45 e8          	mov    rax,QWORD PTR [rbp-0x18]
    66b7:	48 89 90 b8 00 00 00 	mov    QWORD PTR [rax+0xb8],rdx
    66be:	c9                   	leave  
    66bf:	c3                   	ret    

00000000000066c0 <stbi__getn(stbi__context*, unsigned char*, int)>:
    66c0:	55                   	push   rbp
    66c1:	48 89 e5             	mov    rbp,rsp
    66c4:	48 83 ec 30          	sub    rsp,0x30
    66c8:	48 89 7d e8          	mov    QWORD PTR [rbp-0x18],rdi
    66cc:	48 89 75 e0          	mov    QWORD PTR [rbp-0x20],rsi
    66d0:	89 55 dc             	mov    DWORD PTR [rbp-0x24],edx
    66d3:	48 8b 45 e8          	mov    rax,QWORD PTR [rbp-0x18]
    66d7:	48 8b 40 10          	mov    rax,QWORD PTR [rax+0x10]
    66db:	48 85 c0             	test   rax,rax
    66de:	0f 84 a1 00 00 00    	je     6785 <stbi__getn(stbi__context*, unsigned char*, int)+0xc5>
    66e4:	48 8b 45 e8          	mov    rax,QWORD PTR [rbp-0x18]
    66e8:	48 8b 90 c0 00 00 00 	mov    rdx,QWORD PTR [rax+0xc0]
    66ef:	48 8b 45 e8          	mov    rax,QWORD PTR [rbp-0x18]
    66f3:	48 8b 88 b8 00 00 00 	mov    rcx,QWORD PTR [rax+0xb8]
    66fa:	48 89 d0             	mov    rax,rdx
    66fd:	48 29 c8             	sub    rax,rcx
    6700:	89 45 f4             	mov    DWORD PTR [rbp-0xc],eax
    6703:	8b 45 f4             	mov    eax,DWORD PTR [rbp-0xc]
    6706:	3b 45 dc             	cmp    eax,DWORD PTR [rbp-0x24]
    6709:	7d 7a                	jge    6785 <stbi__getn(stbi__context*, unsigned char*, int)+0xc5>
    670b:	8b 45 f4             	mov    eax,DWORD PTR [rbp-0xc]
    670e:	48 63 d0             	movsxd rdx,eax
    6711:	48 8b 45 e8          	mov    rax,QWORD PTR [rbp-0x18]
    6715:	48 8b 88 b8 00 00 00 	mov    rcx,QWORD PTR [rax+0xb8]
    671c:	48 8b 45 e0          	mov    rax,QWORD PTR [rbp-0x20]
    6720:	48 89 ce             	mov    rsi,rcx
    6723:	48 89 c7             	mov    rdi,rax
    6726:	e8 45 dc ff ff       	call   4370 <memcpy@plt>
    672b:	48 8b 45 e8          	mov    rax,QWORD PTR [rbp-0x18]
    672f:	48 8b 48 10          	mov    rcx,QWORD PTR [rax+0x10]
    6733:	8b 45 dc             	mov    eax,DWORD PTR [rbp-0x24]
    6736:	2b 45 f4             	sub    eax,DWORD PTR [rbp-0xc]
    6739:	89 c2                	mov    edx,eax
    673b:	8b 45 f4             	mov    eax,DWORD PTR [rbp-0xc]
    673e:	48 63 f0             	movsxd rsi,eax
    6741:	48 8b 45 e0          	mov    rax,QWORD PTR [rbp-0x20]
    6745:	48 01 c6             	add    rsi,rax
    6748:	48 8b 45 e8          	mov    rax,QWORD PTR [rbp-0x18]
    674c:	48 8b 40 28          	mov    rax,QWORD PTR [rax+0x28]
    6750:	48 89 c7             	mov    rdi,rax
    6753:	ff d1                	call   rcx
    6755:	89 45 f8             	mov    DWORD PTR [rbp-0x8],eax
    6758:	8b 45 dc             	mov    eax,DWORD PTR [rbp-0x24]
    675b:	2b 45 f4             	sub    eax,DWORD PTR [rbp-0xc]
    675e:	39 45 f8             	cmp    DWORD PTR [rbp-0x8],eax
    6761:	0f 94 c0             	sete   al
    6764:	0f b6 c0             	movzx  eax,al
    6767:	89 45 fc             	mov    DWORD PTR [rbp-0x4],eax
    676a:	48 8b 45 e8          	mov    rax,QWORD PTR [rbp-0x18]
    676e:	48 8b 90 c0 00 00 00 	mov    rdx,QWORD PTR [rax+0xc0]
    6775:	48 8b 45 e8          	mov    rax,QWORD PTR [rbp-0x18]
    6779:	48 89 90 b8 00 00 00 	mov    QWORD PTR [rax+0xb8],rdx
    6780:	8b 45 fc             	mov    eax,DWORD PTR [rbp-0x4]
    6783:	eb 6d                	jmp    67f2 <stbi__getn(stbi__context*, unsigned char*, int)+0x132>
    6785:	48 8b 45 e8          	mov    rax,QWORD PTR [rbp-0x18]
    6789:	48 8b 90 b8 00 00 00 	mov    rdx,QWORD PTR [rax+0xb8]
    6790:	8b 45 dc             	mov    eax,DWORD PTR [rbp-0x24]
    6793:	48 98                	cdqe   
    6795:	48 01 c2             	add    rdx,rax
    6798:	48 8b 45 e8          	mov    rax,QWORD PTR [rbp-0x18]
    679c:	48 8b 80 c0 00 00 00 	mov    rax,QWORD PTR [rax+0xc0]
    67a3:	48 39 c2             	cmp    rdx,rax
    67a6:	77 45                	ja     67ed <stbi__getn(stbi__context*, unsigned char*, int)+0x12d>
    67a8:	8b 45 dc             	mov    eax,DWORD PTR [rbp-0x24]
    67ab:	48 63 d0             	movsxd rdx,eax
    67ae:	48 8b 45 e8          	mov    rax,QWORD PTR [rbp-0x18]
    67b2:	48 8b 88 b8 00 00 00 	mov    rcx,QWORD PTR [rax+0xb8]
    67b9:	48 8b 45 e0          	mov    rax,QWORD PTR [rbp-0x20]
    67bd:	48 89 ce             	mov    rsi,rcx
    67c0:	48 89 c7             	mov    rdi,rax
    67c3:	e8 a8 db ff ff       	call   4370 <memcpy@plt>
    67c8:	48 8b 45 e8          	mov    rax,QWORD PTR [rbp-0x18]
    67cc:	48 8b 90 b8 00 00 00 	mov    rdx,QWORD PTR [rax+0xb8]
    67d3:	8b 45 dc             	mov    eax,DWORD PTR [rbp-0x24]
    67d6:	48 98                	cdqe   
    67d8:	48 01 c2             	add    rdx,rax
    67db:	48 8b 45 e8          	mov    rax,QWORD PTR [rbp-0x18]
    67df:	48 89 90 b8 00 00 00 	mov    QWORD PTR [rax+0xb8],rdx
    67e6:	b8 01 00 00 00       	mov    eax,0x1
    67eb:	eb 05                	jmp    67f2 <stbi__getn(stbi__context*, unsigned char*, int)+0x132>
    67ed:	b8 00 00 00 00       	mov    eax,0x0
    67f2:	c9                   	leave  
    67f3:	c3                   	ret    

00000000000067f4 <stbi__get16be(stbi__context*)>:
    67f4:	55                   	push   rbp
    67f5:	48 89 e5             	mov    rbp,rsp
    67f8:	53                   	push   rbx
    67f9:	48 83 ec 28          	sub    rsp,0x28
    67fd:	48 89 7d d8          	mov    QWORD PTR [rbp-0x28],rdi
    6801:	48 8b 45 d8          	mov    rax,QWORD PTR [rbp-0x28]
    6805:	48 89 c7             	mov    rdi,rax
    6808:	e8 04 fd ff ff       	call   6511 <stbi__get8(stbi__context*)>
    680d:	0f b6 c0             	movzx  eax,al
    6810:	89 45 ec             	mov    DWORD PTR [rbp-0x14],eax
    6813:	8b 45 ec             	mov    eax,DWORD PTR [rbp-0x14]
    6816:	c1 e0 08             	shl    eax,0x8
    6819:	89 c3                	mov    ebx,eax
    681b:	48 8b 45 d8          	mov    rax,QWORD PTR [rbp-0x28]
    681f:	48 89 c7             	mov    rdi,rax
    6822:	e8 ea fc ff ff       	call   6511 <stbi__get8(stbi__context*)>
    6827:	0f b6 c0             	movzx  eax,al
    682a:	01 d8                	add    eax,ebx
    682c:	48 8b 5d f8          	mov    rbx,QWORD PTR [rbp-0x8]
    6830:	c9                   	leave  
    6831:	c3                   	ret    

0000000000006832 <stbi__get32be(stbi__context*)>:
    6832:	55                   	push   rbp
    6833:	48 89 e5             	mov    rbp,rsp
    6836:	53                   	push   rbx
    6837:	48 83 ec 28          	sub    rsp,0x28
    683b:	48 89 7d d8          	mov    QWORD PTR [rbp-0x28],rdi
    683f:	48 8b 45 d8          	mov    rax,QWORD PTR [rbp-0x28]
    6843:	48 89 c7             	mov    rdi,rax
    6846:	e8 a9 ff ff ff       	call   67f4 <stbi__get16be(stbi__context*)>
    684b:	89 45 ec             	mov    DWORD PTR [rbp-0x14],eax
    684e:	8b 45 ec             	mov    eax,DWORD PTR [rbp-0x14]
    6851:	c1 e0 10             	shl    eax,0x10
    6854:	89 c3                	mov    ebx,eax
    6856:	48 8b 45 d8          	mov    rax,QWORD PTR [rbp-0x28]
    685a:	48 89 c7             	mov    rdi,rax
    685d:	e8 92 ff ff ff       	call   67f4 <stbi__get16be(stbi__context*)>
    6862:	01 d8                	add    eax,ebx
    6864:	48 8b 5d f8          	mov    rbx,QWORD PTR [rbp-0x8]
    6868:	c9                   	leave  
    6869:	c3                   	ret    

000000000000686a <stbi__get16le(stbi__context*)>:
    686a:	55                   	push   rbp
    686b:	48 89 e5             	mov    rbp,rsp
    686e:	48 83 ec 20          	sub    rsp,0x20
    6872:	48 89 7d e8          	mov    QWORD PTR [rbp-0x18],rdi
    6876:	48 8b 45 e8          	mov    rax,QWORD PTR [rbp-0x18]
    687a:	48 89 c7             	mov    rdi,rax
    687d:	e8 8f fc ff ff       	call   6511 <stbi__get8(stbi__context*)>
    6882:	0f b6 c0             	movzx  eax,al
    6885:	89 45 fc             	mov    DWORD PTR [rbp-0x4],eax
    6888:	48 8b 45 e8          	mov    rax,QWORD PTR [rbp-0x18]
    688c:	48 89 c7             	mov    rdi,rax
    688f:	e8 7d fc ff ff       	call   6511 <stbi__get8(stbi__context*)>
    6894:	0f b6 c0             	movzx  eax,al
    6897:	c1 e0 08             	shl    eax,0x8
    689a:	89 c2                	mov    edx,eax
    689c:	8b 45 fc             	mov    eax,DWORD PTR [rbp-0x4]
    689f:	01 d0                	add    eax,edx
    68a1:	c9                   	leave  
    68a2:	c3                   	ret    

00000000000068a3 <stbi__get32le(stbi__context*)>:
    68a3:	55                   	push   rbp
    68a4:	48 89 e5             	mov    rbp,rsp
    68a7:	48 83 ec 20          	sub    rsp,0x20
    68ab:	48 89 7d e8          	mov    QWORD PTR [rbp-0x18],rdi
    68af:	48 8b 45 e8          	mov    rax,QWORD PTR [rbp-0x18]
    68b3:	48 89 c7             	mov    rdi,rax
    68b6:	e8 af ff ff ff       	call   686a <stbi__get16le(stbi__context*)>
    68bb:	89 45 fc             	mov    DWORD PTR [rbp-0x4],eax
    68be:	48 8b 45 e8          	mov    rax,QWORD PTR [rbp-0x18]
    68c2:	48 89 c7             	mov    rdi,rax
    68c5:	e8 a0 ff ff ff       	call   686a <stbi__get16le(stbi__context*)>
    68ca:	c1 e0 10             	shl    eax,0x10
    68cd:	89 c2                	mov    edx,eax
    68cf:	8b 45 fc             	mov    eax,DWORD PTR [rbp-0x4]
    68d2:	01 d0                	add    eax,edx
    68d4:	c9                   	leave  
    68d5:	c3                   	ret    

00000000000068d6 <stbi__compute_y(int, int, int)>:
    68d6:	55                   	push   rbp
    68d7:	48 89 e5             	mov    rbp,rsp
    68da:	89 7d fc             	mov    DWORD PTR [rbp-0x4],edi
    68dd:	89 75 f8             	mov    DWORD PTR [rbp-0x8],esi
    68e0:	89 55 f4             	mov    DWORD PTR [rbp-0xc],edx
    68e3:	8b 45 fc             	mov    eax,DWORD PTR [rbp-0x4]
    68e6:	6b d0 4d             	imul   edx,eax,0x4d
    68e9:	8b 45 f8             	mov    eax,DWORD PTR [rbp-0x8]
    68ec:	69 c0 96 00 00 00    	imul   eax,eax,0x96
    68f2:	01 c2                	add    edx,eax
    68f4:	8b 45 f4             	mov    eax,DWORD PTR [rbp-0xc]
    68f7:	6b c0 1d             	imul   eax,eax,0x1d
    68fa:	01 d0                	add    eax,edx
    68fc:	c1 f8 08             	sar    eax,0x8
    68ff:	5d                   	pop    rbp
    6900:	c3                   	ret    

0000000000006901 <stbi__convert_format(unsigned char*, int, int, unsigned int, unsigned int)>:
    6901:	55                   	push   rbp
    6902:	48 89 e5             	mov    rbp,rsp
    6905:	48 83 ec 40          	sub    rsp,0x40
    6909:	48 89 7d d8          	mov    QWORD PTR [rbp-0x28],rdi
    690d:	89 75 d4             	mov    DWORD PTR [rbp-0x2c],esi
    6910:	89 55 d0             	mov    DWORD PTR [rbp-0x30],edx
    6913:	89 4d cc             	mov    DWORD PTR [rbp-0x34],ecx
    6916:	44 89 45 c8          	mov    DWORD PTR [rbp-0x38],r8d
    691a:	8b 45 d0             	mov    eax,DWORD PTR [rbp-0x30]
    691d:	3b 45 d4             	cmp    eax,DWORD PTR [rbp-0x2c]
    6920:	75 09                	jne    692b <stbi__convert_format(unsigned char*, int, int, unsigned int, unsigned int)+0x2a>
    6922:	48 8b 45 d8          	mov    rax,QWORD PTR [rbp-0x28]
    6926:	e9 28 05 00 00       	jmp    6e53 <stbi__convert_format(unsigned char*, int, int, unsigned int, unsigned int)+0x552>
    692b:	83 7d d0 00          	cmp    DWORD PTR [rbp-0x30],0x0
    692f:	7e 06                	jle    6937 <stbi__convert_format(unsigned char*, int, int, unsigned int, unsigned int)+0x36>
    6931:	83 7d d0 04          	cmp    DWORD PTR [rbp-0x30],0x4
    6935:	7e 28                	jle    695f <stbi__convert_format(unsigned char*, int, int, unsigned int, unsigned int)+0x5e>
    6937:	48 8d 05 1a 38 03 00 	lea    rax,[rip+0x3381a]        # 3a158 <_IO_stdin_used+0x158>
    693e:	48 89 c1             	mov    rcx,rax
    6941:	ba 7c 06 00 00       	mov    edx,0x67c
    6946:	48 8d 05 4b 37 03 00 	lea    rax,[rip+0x3374b]        # 3a098 <_IO_stdin_used+0x98>
    694d:	48 89 c6             	mov    rsi,rax
    6950:	48 8d 05 61 38 03 00 	lea    rax,[rip+0x33861]        # 3a1b8 <_IO_stdin_used+0x1b8>
    6957:	48 89 c7             	mov    rdi,rax
    695a:	e8 21 d9 ff ff       	call   4280 <__assert_fail@plt>
    695f:	8b 55 c8             	mov    edx,DWORD PTR [rbp-0x38]
    6962:	8b 75 cc             	mov    esi,DWORD PTR [rbp-0x34]
    6965:	8b 45 d0             	mov    eax,DWORD PTR [rbp-0x30]
    6968:	b9 00 00 00 00       	mov    ecx,0x0
    696d:	89 c7                	mov    edi,eax
    696f:	e8 2d e4 ff ff       	call   4da1 <stbi__malloc_mad3(int, int, int, int)>
    6974:	48 89 45 f8          	mov    QWORD PTR [rbp-0x8],rax
    6978:	48 83 7d f8 00       	cmp    QWORD PTR [rbp-0x8],0x0
    697d:	75 25                	jne    69a4 <stbi__convert_format(unsigned char*, int, int, unsigned int, unsigned int)+0xa3>
    697f:	48 8b 45 d8          	mov    rax,QWORD PTR [rbp-0x28]
    6983:	48 89 c7             	mov    rdi,rax
    6986:	e8 a5 db ff ff       	call   4530 <free@plt>
    698b:	48 8d 05 a1 36 03 00 	lea    rax,[rip+0x336a1]        # 3a033 <_IO_stdin_used+0x33>
    6992:	48 89 c7             	mov    rdi,rax
    6995:	e8 d8 e1 ff ff       	call   4b72 <stbi__err(char const*)>
    699a:	b8 00 00 00 00       	mov    eax,0x0
    699f:	e9 af 04 00 00       	jmp    6e53 <stbi__convert_format(unsigned char*, int, int, unsigned int, unsigned int)+0x552>
    69a4:	c7 45 e4 00 00 00 00 	mov    DWORD PTR [rbp-0x1c],0x0
    69ab:	e9 87 04 00 00       	jmp    6e37 <stbi__convert_format(unsigned char*, int, int, unsigned int, unsigned int)+0x536>
    69b0:	8b 45 e4             	mov    eax,DWORD PTR [rbp-0x1c]
    69b3:	0f af 45 cc          	imul   eax,DWORD PTR [rbp-0x34]
    69b7:	89 c2                	mov    edx,eax
    69b9:	8b 45 d4             	mov    eax,DWORD PTR [rbp-0x2c]
    69bc:	0f af c2             	imul   eax,edx
    69bf:	89 c2                	mov    edx,eax
    69c1:	48 8b 45 d8          	mov    rax,QWORD PTR [rbp-0x28]
    69c5:	48 01 d0             	add    rax,rdx
    69c8:	48 89 45 e8          	mov    QWORD PTR [rbp-0x18],rax
    69cc:	8b 45 e4             	mov    eax,DWORD PTR [rbp-0x1c]
    69cf:	0f af 45 cc          	imul   eax,DWORD PTR [rbp-0x34]
    69d3:	89 c2                	mov    edx,eax
    69d5:	8b 45 d0             	mov    eax,DWORD PTR [rbp-0x30]
    69d8:	0f af c2             	imul   eax,edx
    69db:	89 c2                	mov    edx,eax
    69dd:	48 8b 45 f8          	mov    rax,QWORD PTR [rbp-0x8]
    69e1:	48 01 d0             	add    rax,rdx
    69e4:	48 89 45 f0          	mov    QWORD PTR [rbp-0x10],rax
    69e8:	8b 45 d4             	mov    eax,DWORD PTR [rbp-0x2c]
    69eb:	8d 14 c5 00 00 00 00 	lea    edx,[rax*8+0x0]
    69f2:	8b 45 d0             	mov    eax,DWORD PTR [rbp-0x30]
    69f5:	01 d0                	add    eax,edx
    69f7:	83 e8 0a             	sub    eax,0xa
    69fa:	83 f8 19             	cmp    eax,0x19
    69fd:	0f 87 08 04 00 00    	ja     6e0b <stbi__convert_format(unsigned char*, int, int, unsigned int, unsigned int)+0x50a>
    6a03:	89 c0                	mov    eax,eax
    6a05:	48 8d 14 85 00 00 00 00 	lea    rdx,[rax*4+0x0]
    6a0d:	48 8d 05 c8 37 03 00 	lea    rax,[rip+0x337c8]        # 3a1dc <_IO_stdin_used+0x1dc>
    6a14:	8b 04 02             	mov    eax,DWORD PTR [rdx+rax*1]
    6a17:	48 98                	cdqe   
    6a19:	48 8d 15 bc 37 03 00 	lea    rdx,[rip+0x337bc]        # 3a1dc <_IO_stdin_used+0x1dc>
    6a20:	48 01 d0             	add    rax,rdx
    6a23:	ff e0                	jmp    rax
    6a25:	8b 45 cc             	mov    eax,DWORD PTR [rbp-0x34]
    6a28:	83 e8 01             	sub    eax,0x1
    6a2b:	89 45 e0             	mov    DWORD PTR [rbp-0x20],eax
    6a2e:	eb 26                	jmp    6a56 <stbi__convert_format(unsigned char*, int, int, unsigned int, unsigned int)+0x155>
    6a30:	48 8b 45 e8          	mov    rax,QWORD PTR [rbp-0x18]
    6a34:	0f b6 10             	movzx  edx,BYTE PTR [rax]
    6a37:	48 8b 45 f0          	mov    rax,QWORD PTR [rbp-0x10]
    6a3b:	88 10                	mov    BYTE PTR [rax],dl
    6a3d:	48 8b 45 f0          	mov    rax,QWORD PTR [rbp-0x10]
    6a41:	48 83 c0 01          	add    rax,0x1
    6a45:	c6 00 ff             	mov    BYTE PTR [rax],0xff
    6a48:	83 6d e0 01          	sub    DWORD PTR [rbp-0x20],0x1
    6a4c:	48 83 45 e8 01       	add    QWORD PTR [rbp-0x18],0x1
    6a51:	48 83 45 f0 02       	add    QWORD PTR [rbp-0x10],0x2
    6a56:	83 7d e0 00          	cmp    DWORD PTR [rbp-0x20],0x0
    6a5a:	79 d4                	jns    6a30 <stbi__convert_format(unsigned char*, int, int, unsigned int, unsigned int)+0x12f>
    6a5c:	e9 d2 03 00 00       	jmp    6e33 <stbi__convert_format(unsigned char*, int, int, unsigned int, unsigned int)+0x532>
    6a61:	8b 45 cc             	mov    eax,DWORD PTR [rbp-0x34]
    6a64:	83 e8 01             	sub    eax,0x1
    6a67:	89 45 e0             	mov    DWORD PTR [rbp-0x20],eax
    6a6a:	eb 35                	jmp    6aa1 <stbi__convert_format(unsigned char*, int, int, unsigned int, unsigned int)+0x1a0>
    6a6c:	48 8b 45 f0          	mov    rax,QWORD PTR [rbp-0x10]
    6a70:	48 8d 50 02          	lea    rdx,[rax+0x2]
    6a74:	48 8b 45 e8          	mov    rax,QWORD PTR [rbp-0x18]
    6a78:	0f b6 00             	movzx  eax,BYTE PTR [rax]
    6a7b:	88 02                	mov    BYTE PTR [rdx],al
    6a7d:	48 8b 45 f0          	mov    rax,QWORD PTR [rbp-0x10]
    6a81:	48 83 c0 01          	add    rax,0x1
    6a85:	0f b6 12             	movzx  edx,BYTE PTR [rdx]
    6a88:	88 10                	mov    BYTE PTR [rax],dl
    6a8a:	0f b6 10             	movzx  edx,BYTE PTR [rax]
    6a8d:	48 8b 45 f0          	mov    rax,QWORD PTR [rbp-0x10]
    6a91:	88 10                	mov    BYTE PTR [rax],dl
    6a93:	83 6d e0 01          	sub    DWORD PTR [rbp-0x20],0x1
    6a97:	48 83 45 e8 01       	add    QWORD PTR [rbp-0x18],0x1
    6a9c:	48 83 45 f0 03       	add    QWORD PTR [rbp-0x10],0x3
    6aa1:	83 7d e0 00          	cmp    DWORD PTR [rbp-0x20],0x0
    6aa5:	79 c5                	jns    6a6c <stbi__convert_format(unsigned char*, int, int, unsigned int, unsigned int)+0x16b>
    6aa7:	e9 87 03 00 00       	jmp    6e33 <stbi__convert_format(unsigned char*, int, int, unsigned int, unsigned int)+0x532>
    6aac:	8b 45 cc             	mov    eax,DWORD PTR [rbp-0x34]
    6aaf:	83 e8 01             	sub    eax,0x1
    6ab2:	89 45 e0             	mov    DWORD PTR [rbp-0x20],eax
    6ab5:	eb 40                	jmp    6af7 <stbi__convert_format(unsigned char*, int, int, unsigned int, unsigned int)+0x1f6>
    6ab7:	48 8b 45 f0          	mov    rax,QWORD PTR [rbp-0x10]
    6abb:	48 8d 50 02          	lea    rdx,[rax+0x2]
    6abf:	48 8b 45 e8          	mov    rax,QWORD PTR [rbp-0x18]
    6ac3:	0f b6 00             	movzx  eax,BYTE PTR [rax]
    6ac6:	88 02                	mov    BYTE PTR [rdx],al
    6ac8:	48 8b 45 f0          	mov    rax,QWORD PTR [rbp-0x10]
    6acc:	48 83 c0 01          	add    rax,0x1
    6ad0:	0f b6 12             	movzx  edx,BYTE PTR [rdx]
    6ad3:	88 10                	mov    BYTE PTR [rax],dl
    6ad5:	0f b6 10             	movzx  edx,BYTE PTR [rax]
    6ad8:	48 8b 45 f0          	mov    rax,QWORD PTR [rbp-0x10]
    6adc:	88 10                	mov    BYTE PTR [rax],dl
    6ade:	48 8b 45 f0          	mov    rax,QWORD PTR [rbp-0x10]
    6ae2:	48 83 c0 03          	add    rax,0x3
    6ae6:	c6 00 ff             	mov    BYTE PTR [rax],0xff
    6ae9:	83 6d e0 01          	sub    DWORD PTR [rbp-0x20],0x1
    6aed:	48 83 45 e8 01       	add    QWORD PTR [rbp-0x18],0x1
    6af2:	48 83 45 f0 04       	add    QWORD PTR [rbp-0x10],0x4
    6af7:	83 7d e0 00          	cmp    DWORD PTR [rbp-0x20],0x0
    6afb:	79 ba                	jns    6ab7 <stbi__convert_format(unsigned char*, int, int, unsigned int, unsigned int)+0x1b6>
    6afd:	e9 31 03 00 00       	jmp    6e33 <stbi__convert_format(unsigned char*, int, int, unsigned int, unsigned int)+0x532>
    6b02:	8b 45 cc             	mov    eax,DWORD PTR [rbp-0x34]
    6b05:	83 e8 01             	sub    eax,0x1
    6b08:	89 45 e0             	mov    DWORD PTR [rbp-0x20],eax
    6b0b:	eb 1b                	jmp    6b28 <stbi__convert_format(unsigned char*, int, int, unsigned int, unsigned int)+0x227>
    6b0d:	48 8b 45 e8          	mov    rax,QWORD PTR [rbp-0x18]
    6b11:	0f b6 10             	movzx  edx,BYTE PTR [rax]
    6b14:	48 8b 45 f0          	mov    rax,QWORD PTR [rbp-0x10]
    6b18:	88 10                	mov    BYTE PTR [rax],dl
    6b1a:	83 6d e0 01          	sub    DWORD PTR [rbp-0x20],0x1
    6b1e:	48 83 45 e8 02       	add    QWORD PTR [rbp-0x18],0x2
    6b23:	48 83 45 f0 01       	add    QWORD PTR [rbp-0x10],0x1
    6b28:	83 7d e0 00          	cmp    DWORD PTR [rbp-0x20],0x0
    6b2c:	79 df                	jns    6b0d <stbi__convert_format(unsigned char*, int, int, unsigned int, unsigned int)+0x20c>
    6b2e:	e9 00 03 00 00       	jmp    6e33 <stbi__convert_format(unsigned char*, int, int, unsigned int, unsigned int)+0x532>
    6b33:	8b 45 cc             	mov    eax,DWORD PTR [rbp-0x34]
    6b36:	83 e8 01             	sub    eax,0x1
    6b39:	89 45 e0             	mov    DWORD PTR [rbp-0x20],eax
    6b3c:	eb 35                	jmp    6b73 <stbi__convert_format(unsigned char*, int, int, unsigned int, unsigned int)+0x272>
    6b3e:	48 8b 45 f0          	mov    rax,QWORD PTR [rbp-0x10]
    6b42:	48 8d 50 02          	lea    rdx,[rax+0x2]
    6b46:	48 8b 45 e8          	mov    rax,QWORD PTR [rbp-0x18]
    6b4a:	0f b6 00             	movzx  eax,BYTE PTR [rax]
    6b4d:	88 02                	mov    BYTE PTR [rdx],al
    6b4f:	48 8b 45 f0          	mov    rax,QWORD PTR [rbp-0x10]
    6b53:	48 83 c0 01          	add    rax,0x1
    6b57:	0f b6 12             	movzx  edx,BYTE PTR [rdx]
    6b5a:	88 10                	mov    BYTE PTR [rax],dl
    6b5c:	0f b6 10             	movzx  edx,BYTE PTR [rax]
    6b5f:	48 8b 45 f0          	mov    rax,QWORD PTR [rbp-0x10]
    6b63:	88 10                	mov    BYTE PTR [rax],dl
    6b65:	83 6d e0 01          	sub    DWORD PTR [rbp-0x20],0x1
    6b69:	48 83 45 e8 02       	add    QWORD PTR [rbp-0x18],0x2
    6b6e:	48 83 45 f0 03       	add    QWORD PTR [rbp-0x10],0x3
    6b73:	83 7d e0 00          	cmp    DWORD PTR [rbp-0x20],0x0
    6b77:	79 c5                	jns    6b3e <stbi__convert_format(unsigned char*, int, int, unsigned int, unsigned int)+0x23d>
    6b79:	e9 b5 02 00 00       	jmp    6e33 <stbi__convert_format(unsigned char*, int, int, unsigned int, unsigned int)+0x532>
    6b7e:	8b 45 cc             	mov    eax,DWORD PTR [rbp-0x34]
    6b81:	83 e8 01             	sub    eax,0x1
    6b84:	89 45 e0             	mov    DWORD PTR [rbp-0x20],eax
    6b87:	eb 47                	jmp    6bd0 <stbi__convert_format(unsigned char*, int, int, unsigned int, unsigned int)+0x2cf>
    6b89:	48 8b 45 f0          	mov    rax,QWORD PTR [rbp-0x10]
    6b8d:	48 8d 50 02          	lea    rdx,[rax+0x2]
    6b91:	48 8b 45 e8          	mov    rax,QWORD PTR [rbp-0x18]
    6b95:	0f b6 00             	movzx  eax,BYTE PTR [rax]
    6b98:	88 02                	mov    BYTE PTR [rdx],al
    6b9a:	48 8b 45 f0          	mov    rax,QWORD PTR [rbp-0x10]
    6b9e:	48 83 c0 01          	add    rax,0x1
    6ba2:	0f b6 12             	movzx  edx,BYTE PTR [rdx]
    6ba5:	88 10                	mov    BYTE PTR [rax],dl
    6ba7:	0f b6 10             	movzx  edx,BYTE PTR [rax]
    6baa:	48 8b 45 f0          	mov    rax,QWORD PTR [rbp-0x10]
    6bae:	88 10                	mov    BYTE PTR [rax],dl
    6bb0:	48 8b 45 f0          	mov    rax,QWORD PTR [rbp-0x10]
    6bb4:	48 8d 50 03          	lea    rdx,[rax+0x3]
    6bb8:	48 8b 45 e8          	mov    rax,QWORD PTR [rbp-0x18]
    6bbc:	0f b6 40 01          	movzx  eax,BYTE PTR [rax+0x1]
    6bc0:	88 02                	mov    BYTE PTR [rdx],al
    6bc2:	83 6d e0 01          	sub    DWORD PTR [rbp-0x20],0x1
    6bc6:	48 83 45 e8 02       	add    QWORD PTR [rbp-0x18],0x2
    6bcb:	48 83 45 f0 04       	add    QWORD PTR [rbp-0x10],0x4
    6bd0:	83 7d e0 00          	cmp    DWORD PTR [rbp-0x20],0x0
    6bd4:	79 b3                	jns    6b89 <stbi__convert_format(unsigned char*, int, int, unsigned int, unsigned int)+0x288>
    6bd6:	e9 58 02 00 00       	jmp    6e33 <stbi__convert_format(unsigned char*, int, int, unsigned int, unsigned int)+0x532>
    6bdb:	8b 45 cc             	mov    eax,DWORD PTR [rbp-0x34]
    6bde:	83 e8 01             	sub    eax,0x1
    6be1:	89 45 e0             	mov    DWORD PTR [rbp-0x20],eax
    6be4:	eb 4a                	jmp    6c30 <stbi__convert_format(unsigned char*, int, int, unsigned int, unsigned int)+0x32f>
    6be6:	48 8b 45 e8          	mov    rax,QWORD PTR [rbp-0x18]
    6bea:	0f b6 10             	movzx  edx,BYTE PTR [rax]
    6bed:	48 8b 45 f0          	mov    rax,QWORD PTR [rbp-0x10]
    6bf1:	88 10                	mov    BYTE PTR [rax],dl
    6bf3:	48 8b 45 f0          	mov    rax,QWORD PTR [rbp-0x10]
    6bf7:	48 8d 50 01          	lea    rdx,[rax+0x1]
    6bfb:	48 8b 45 e8          	mov    rax,QWORD PTR [rbp-0x18]
    6bff:	0f b6 40 01          	movzx  eax,BYTE PTR [rax+0x1]
    6c03:	88 02                	mov    BYTE PTR [rdx],al
    6c05:	48 8b 45 f0          	mov    rax,QWORD PTR [rbp-0x10]
    6c09:	48 8d 50 02          	lea    rdx,[rax+0x2]
    6c0d:	48 8b 45 e8          	mov    rax,QWORD PTR [rbp-0x18]
    6c11:	0f b6 40 02          	movzx  eax,BYTE PTR [rax+0x2]
    6c15:	88 02                	mov    BYTE PTR [rdx],al
    6c17:	48 8b 45 f0          	mov    rax,QWORD PTR [rbp-0x10]
    6c1b:	48 83 c0 03          	add    rax,0x3
    6c1f:	c6 00 ff             	mov    BYTE PTR [rax],0xff
    6c22:	83 6d e0 01          	sub    DWORD PTR [rbp-0x20],0x1
    6c26:	48 83 45 e8 03       	add    QWORD PTR [rbp-0x18],0x3
    6c2b:	48 83 45 f0 04       	add    QWORD PTR [rbp-0x10],0x4
    6c30:	83 7d e0 00          	cmp    DWORD PTR [rbp-0x20],0x0
    6c34:	79 b0                	jns    6be6 <stbi__convert_format(unsigned char*, int, int, unsigned int, unsigned int)+0x2e5>
    6c36:	e9 f8 01 00 00       	jmp    6e33 <stbi__convert_format(unsigned char*, int, int, unsigned int, unsigned int)+0x532>
    6c3b:	8b 45 cc             	mov    eax,DWORD PTR [rbp-0x34]
    6c3e:	83 e8 01             	sub    eax,0x1
    6c41:	89 45 e0             	mov    DWORD PTR [rbp-0x20],eax
    6c44:	eb 43                	jmp    6c89 <stbi__convert_format(unsigned char*, int, int, unsigned int, unsigned int)+0x388>
    6c46:	48 8b 45 e8          	mov    rax,QWORD PTR [rbp-0x18]
    6c4a:	48 83 c0 02          	add    rax,0x2
    6c4e:	0f b6 00             	movzx  eax,BYTE PTR [rax]
    6c51:	0f b6 d0             	movzx  edx,al
    6c54:	48 8b 45 e8          	mov    rax,QWORD PTR [rbp-0x18]
    6c58:	48 83 c0 01          	add    rax,0x1
    6c5c:	0f b6 00             	movzx  eax,BYTE PTR [rax]
    6c5f:	0f b6 c8             	movzx  ecx,al
    6c62:	48 8b 45 e8          	mov    rax,QWORD PTR [rbp-0x18]
    6c66:	0f b6 00             	movzx  eax,BYTE PTR [rax]
    6c69:	0f b6 c0             	movzx  eax,al
    6c6c:	89 ce                	mov    esi,ecx
    6c6e:	89 c7                	mov    edi,eax
    6c70:	e8 61 fc ff ff       	call   68d6 <stbi__compute_y(int, int, int)>
    6c75:	48 8b 55 f0          	mov    rdx,QWORD PTR [rbp-0x10]
    6c79:	88 02                	mov    BYTE PTR [rdx],al
    6c7b:	83 6d e0 01          	sub    DWORD PTR [rbp-0x20],0x1
    6c7f:	48 83 45 e8 03       	add    QWORD PTR [rbp-0x18],0x3
    6c84:	48 83 45 f0 01       	add    QWORD PTR [rbp-0x10],0x1
    6c89:	83 7d e0 00          	cmp    DWORD PTR [rbp-0x20],0x0
    6c8d:	79 b7                	jns    6c46 <stbi__convert_format(unsigned char*, int, int, unsigned int, unsigned int)+0x345>
    6c8f:	e9 9f 01 00 00       	jmp    6e33 <stbi__convert_format(unsigned char*, int, int, unsigned int, unsigned int)+0x532>
    6c94:	8b 45 cc             	mov    eax,DWORD PTR [rbp-0x34]
    6c97:	83 e8 01             	sub    eax,0x1
    6c9a:	89 45 e0             	mov    DWORD PTR [rbp-0x20],eax
    6c9d:	eb 4e                	jmp    6ced <stbi__convert_format(unsigned char*, int, int, unsigned int, unsigned int)+0x3ec>
    6c9f:	48 8b 45 e8          	mov    rax,QWORD PTR [rbp-0x18]
    6ca3:	48 83 c0 02          	add    rax,0x2
    6ca7:	0f b6 00             	movzx  eax,BYTE PTR [rax]
    6caa:	0f b6 d0             	movzx  edx,al
    6cad:	48 8b 45 e8          	mov    rax,QWORD PTR [rbp-0x18]
    6cb1:	48 83 c0 01          	add    rax,0x1
    6cb5:	0f b6 00             	movzx  eax,BYTE PTR [rax]
    6cb8:	0f b6 c8             	movzx  ecx,al
    6cbb:	48 8b 45 e8          	mov    rax,QWORD PTR [rbp-0x18]
    6cbf:	0f b6 00             	movzx  eax,BYTE PTR [rax]
    6cc2:	0f b6 c0             	movzx  eax,al
    6cc5:	89 ce                	mov    esi,ecx
    6cc7:	89 c7                	mov    edi,eax
    6cc9:	e8 08 fc ff ff       	call   68d6 <stbi__compute_y(int, int, int)>
    6cce:	48 8b 55 f0          	mov    rdx,QWORD PTR [rbp-0x10]
    6cd2:	88 02                	mov    BYTE PTR [rdx],al
    6cd4:	48 8b 45 f0          	mov    rax,QWORD PTR [rbp-0x10]
    6cd8:	48 83 c0 01          	add    rax,0x1
    6cdc:	c6 00 ff             	mov    BYTE PTR [rax],0xff
    6cdf:	83 6d e0 01          	sub    DWORD PTR [rbp-0x20],0x1
    6ce3:	48 83 45 e8 03       	add    QWORD PTR [rbp-0x18],0x3
    6ce8:	48 83 45 f0 02       	add    QWORD PTR [rbp-0x10],0x2
    6ced:	83 7d e0 00          	cmp    DWORD PTR [rbp-0x20],0x0
    6cf1:	79 ac                	jns    6c9f <stbi__convert_format(unsigned char*, int, int, unsigned int, unsigned int)+0x39e>
    6cf3:	e9 3b 01 00 00       	jmp    6e33 <stbi__convert_format(unsigned char*, int, int, unsigned int, unsigned int)+0x532>
    6cf8:	8b 45 cc             	mov    eax,DWORD PTR [rbp-0x34]
    6cfb:	83 e8 01             	sub    eax,0x1
    6cfe:	89 45 e0             	mov    DWORD PTR [rbp-0x20],eax
    6d01:	eb 43                	jmp    6d46 <stbi__convert_format(unsigned char*, int, int, unsigned int, unsigned int)+0x445>
    6d03:	48 8b 45 e8          	mov    rax,QWORD PTR [rbp-0x18]
    6d07:	48 83 c0 02          	add    rax,0x2
    6d0b:	0f b6 00             	movzx  eax,BYTE PTR [rax]
    6d0e:	0f b6 d0             	movzx  edx,al
    6d11:	48 8b 45 e8          	mov    rax,QWORD PTR [rbp-0x18]
    6d15:	48 83 c0 01          	add    rax,0x1
    6d19:	0f b6 00             	movzx  eax,BYTE PTR [rax]
    6d1c:	0f b6 c8             	movzx  ecx,al
    6d1f:	48 8b 45 e8          	mov    rax,QWORD PTR [rbp-0x18]
    6d23:	0f b6 00             	movzx  eax,BYTE PTR [rax]
    6d26:	0f b6 c0             	movzx  eax,al
    6d29:	89 ce                	mov    esi,ecx
    6d2b:	89 c7                	mov    edi,eax
    6d2d:	e8 a4 fb ff ff       	call   68d6 <stbi__compute_y(int, int, int)>
    6d32:	48 8b 55 f0          	mov    rdx,QWORD PTR [rbp-0x10]
    6d36:	88 02                	mov    BYTE PTR [rdx],al
    6d38:	83 6d e0 01          	sub    DWORD PTR [rbp-0x20],0x1
    6d3c:	48 83 45 e8 04       	add    QWORD PTR [rbp-0x18],0x4
    6d41:	48 83 45 f0 01       	add    QWORD PTR [rbp-0x10],0x1
    6d46:	83 7d e0 00          	cmp    DWORD PTR [rbp-0x20],0x0
    6d4a:	79 b7                	jns    6d03 <stbi__convert_format(unsigned char*, int, int, unsigned int, unsigned int)+0x402>
    6d4c:	e9 e2 00 00 00       	jmp    6e33 <stbi__convert_format(unsigned char*, int, int, unsigned int, unsigned int)+0x532>
    6d51:	8b 45 cc             	mov    eax,DWORD PTR [rbp-0x34]
    6d54:	83 e8 01             	sub    eax,0x1
    6d57:	89 45 e0             	mov    DWORD PTR [rbp-0x20],eax
    6d5a:	eb 55                	jmp    6db1 <stbi__convert_format(unsigned char*, int, int, unsigned int, unsigned int)+0x4b0>
    6d5c:	48 8b 45 e8          	mov    rax,QWORD PTR [rbp-0x18]
    6d60:	48 83 c0 02          	add    rax,0x2
    6d64:	0f b6 00             	movzx  eax,BYTE PTR [rax]
    6d67:	0f b6 d0             	movzx  edx,al
    6d6a:	48 8b 45 e8          	mov    rax,QWORD PTR [rbp-0x18]
    6d6e:	48 83 c0 01          	add    rax,0x1
    6d72:	0f b6 00             	movzx  eax,BYTE PTR [rax]
    6d75:	0f b6 c8             	movzx  ecx,al
    6d78:	48 8b 45 e8          	mov    rax,QWORD PTR [rbp-0x18]
    6d7c:	0f b6 00             	movzx  eax,BYTE PTR [rax]
    6d7f:	0f b6 c0             	movzx  eax,al
    6d82:	89 ce                	mov    esi,ecx
    6d84:	89 c7                	mov    edi,eax
    6d86:	e8 4b fb ff ff       	call   68d6 <stbi__compute_y(int, int, int)>
    6d8b:	48 8b 55 f0          	mov    rdx,QWORD PTR [rbp-0x10]
    6d8f:	88 02                	mov    BYTE PTR [rdx],al
    6d91:	48 8b 45 f0          	mov    rax,QWORD PTR [rbp-0x10]
    6d95:	48 8d 50 01          	lea    rdx,[rax+0x1]
    6d99:	48 8b 45 e8          	mov    rax,QWORD PTR [rbp-0x18]
    6d9d:	0f b6 40 03          	movzx  eax,BYTE PTR [rax+0x3]
    6da1:	88 02                	mov    BYTE PTR [rdx],al
    6da3:	83 6d e0 01          	sub    DWORD PTR [rbp-0x20],0x1
    6da7:	48 83 45 e8 04       	add    QWORD PTR [rbp-0x18],0x4
    6dac:	48 83 45 f0 02       	add    QWORD PTR [rbp-0x10],0x2
    6db1:	83 7d e0 00          	cmp    DWORD PTR [rbp-0x20],0x0
    6db5:	79 a5                	jns    6d5c <stbi__convert_format(unsigned char*, int, int, unsigned int, unsigned int)+0x45b>
    6db7:	eb 7a                	jmp    6e33 <stbi__convert_format(unsigned char*, int, int, unsigned int, unsigned int)+0x532>
    6db9:	8b 45 cc             	mov    eax,DWORD PTR [rbp-0x34]
    6dbc:	83 e8 01             	sub    eax,0x1
    6dbf:	89 45 e0             	mov    DWORD PTR [rbp-0x20],eax
    6dc2:	eb 3f                	jmp    6e03 <stbi__convert_format(unsigned char*, int, int, unsigned int, unsigned int)+0x502>
    6dc4:	48 8b 45 e8          	mov    rax,QWORD PTR [rbp-0x18]
    6dc8:	0f b6 10             	movzx  edx,BYTE PTR [rax]
    6dcb:	48 8b 45 f0          	mov    rax,QWORD PTR [rbp-0x10]
    6dcf:	88 10                	mov    BYTE PTR [rax],dl
    6dd1:	48 8b 45 f0          	mov    rax,QWORD PTR [rbp-0x10]
    6dd5:	48 8d 50 01          	lea    rdx,[rax+0x1]
    6dd9:	48 8b 45 e8          	mov    rax,QWORD PTR [rbp-0x18]
    6ddd:	0f b6 40 01          	movzx  eax,BYTE PTR [rax+0x1]
    6de1:	88 02                	mov    BYTE PTR [rdx],al
    6de3:	48 8b 45 f0          	mov    rax,QWORD PTR [rbp-0x10]
    6de7:	48 8d 50 02          	lea    rdx,[rax+0x2]
    6deb:	48 8b 45 e8          	mov    rax,QWORD PTR [rbp-0x18]
    6def:	0f b6 40 02          	movzx  eax,BYTE PTR [rax+0x2]
    6df3:	88 02                	mov    BYTE PTR [rdx],al
    6df5:	83 6d e0 01          	sub    DWORD PTR [rbp-0x20],0x1
    6df9:	48 83 45 e8 04       	add    QWORD PTR [rbp-0x18],0x4
    6dfe:	48 83 45 f0 03       	add    QWORD PTR [rbp-0x10],0x3
    6e03:	83 7d e0 00          	cmp    DWORD PTR [rbp-0x20],0x0
    6e07:	79 bb                	jns    6dc4 <stbi__convert_format(unsigned char*, int, int, unsigned int, unsigned int)+0x4c3>
    6e09:	eb 28                	jmp    6e33 <stbi__convert_format(unsigned char*, int, int, unsigned int, unsigned int)+0x532>
    6e0b:	48 8d 05 46 33 03 00 	lea    rax,[rip+0x33346]        # 3a158 <_IO_stdin_used+0x158>
    6e12:	48 89 c1             	mov    rcx,rax
    6e15:	ba 99 06 00 00       	mov    edx,0x699
    6e1a:	48 8d 05 77 32 03 00 	lea    rax,[rip+0x33277]        # 3a098 <_IO_stdin_used+0x98>
    6e21:	48 89 c6             	mov    rsi,rax
    6e24:	48 8d 05 ac 33 03 00 	lea    rax,[rip+0x333ac]        # 3a1d7 <_IO_stdin_used+0x1d7>
    6e2b:	48 89 c7             	mov    rdi,rax
    6e2e:	e8 4d d4 ff ff       	call   4280 <__assert_fail@plt>
    6e33:	83 45 e4 01          	add    DWORD PTR [rbp-0x1c],0x1
    6e37:	8b 45 c8             	mov    eax,DWORD PTR [rbp-0x38]
    6e3a:	39 45 e4             	cmp    DWORD PTR [rbp-0x1c],eax
    6e3d:	0f 8c 6d fb ff ff    	jl     69b0 <stbi__convert_format(unsigned char*, int, int, unsigned int, unsigned int)+0xaf>
    6e43:	48 8b 45 d8          	mov    rax,QWORD PTR [rbp-0x28]
    6e47:	48 89 c7             	mov    rdi,rax
    6e4a:	e8 e1 d6 ff ff       	call   4530 <free@plt>
    6e4f:	48 8b 45 f8          	mov    rax,QWORD PTR [rbp-0x8]
    6e53:	c9                   	leave  
    6e54:	c3                   	ret    

0000000000006e55 <stbi__compute_y_16(int, int, int)>:
    6e55:	55                   	push   rbp
    6e56:	48 89 e5             	mov    rbp,rsp
    6e59:	89 7d fc             	mov    DWORD PTR [rbp-0x4],edi
    6e5c:	89 75 f8             	mov    DWORD PTR [rbp-0x8],esi
    6e5f:	89 55 f4             	mov    DWORD PTR [rbp-0xc],edx
    6e62:	8b 45 fc             	mov    eax,DWORD PTR [rbp-0x4]
    6e65:	6b d0 4d             	imul   edx,eax,0x4d
    6e68:	8b 45 f8             	mov    eax,DWORD PTR [rbp-0x8]
    6e6b:	69 c0 96 00 00 00    	imul   eax,eax,0x96
    6e71:	01 c2                	add    edx,eax
    6e73:	8b 45 f4             	mov    eax,DWORD PTR [rbp-0xc]
    6e76:	6b c0 1d             	imul   eax,eax,0x1d
    6e79:	01 d0                	add    eax,edx
    6e7b:	c1 f8 08             	sar    eax,0x8
    6e7e:	5d                   	pop    rbp
    6e7f:	c3                   	ret    

0000000000006e80 <stbi__convert_format16(unsigned short*, int, int, unsigned int, unsigned int)>:
    6e80:	55                   	push   rbp
    6e81:	48 89 e5             	mov    rbp,rsp
    6e84:	48 83 ec 40          	sub    rsp,0x40
    6e88:	48 89 7d d8          	mov    QWORD PTR [rbp-0x28],rdi
    6e8c:	89 75 d4             	mov    DWORD PTR [rbp-0x2c],esi
    6e8f:	89 55 d0             	mov    DWORD PTR [rbp-0x30],edx
    6e92:	89 4d cc             	mov    DWORD PTR [rbp-0x34],ecx
    6e95:	44 89 45 c8          	mov    DWORD PTR [rbp-0x38],r8d
    6e99:	8b 45 d0             	mov    eax,DWORD PTR [rbp-0x30]
    6e9c:	3b 45 d4             	cmp    eax,DWORD PTR [rbp-0x2c]
    6e9f:	75 09                	jne    6eaa <stbi__convert_format16(unsigned short*, int, int, unsigned int, unsigned int)+0x2a>
    6ea1:	48 8b 45 d8          	mov    rax,QWORD PTR [rbp-0x28]
    6ea5:	e9 54 05 00 00       	jmp    73fe <stbi__convert_format16(unsigned short*, int, int, unsigned int, unsigned int)+0x57e>
    6eaa:	83 7d d0 00          	cmp    DWORD PTR [rbp-0x30],0x0
    6eae:	7e 06                	jle    6eb6 <stbi__convert_format16(unsigned short*, int, int, unsigned int, unsigned int)+0x36>
    6eb0:	83 7d d0 04          	cmp    DWORD PTR [rbp-0x30],0x4
    6eb4:	7e 28                	jle    6ede <stbi__convert_format16(unsigned short*, int, int, unsigned int, unsigned int)+0x5e>
    6eb6:	48 8d 05 8b 33 03 00 	lea    rax,[rip+0x3338b]        # 3a248 <_IO_stdin_used+0x248>
    6ebd:	48 89 c1             	mov    rcx,rax
    6ec0:	ba b5 06 00 00       	mov    edx,0x6b5
    6ec5:	48 8d 05 cc 31 03 00 	lea    rax,[rip+0x331cc]        # 3a098 <_IO_stdin_used+0x98>
    6ecc:	48 89 c6             	mov    rsi,rax
    6ecf:	48 8d 05 e2 32 03 00 	lea    rax,[rip+0x332e2]        # 3a1b8 <_IO_stdin_used+0x1b8>
    6ed6:	48 89 c7             	mov    rdi,rax
    6ed9:	e8 a2 d3 ff ff       	call   4280 <__assert_fail@plt>
    6ede:	8b 45 d0             	mov    eax,DWORD PTR [rbp-0x30]
    6ee1:	0f af 45 cc          	imul   eax,DWORD PTR [rbp-0x34]
    6ee5:	0f af 45 c8          	imul   eax,DWORD PTR [rbp-0x38]
    6ee9:	01 c0                	add    eax,eax
    6eeb:	89 c0                	mov    eax,eax
    6eed:	48 89 c7             	mov    rdi,rax
    6ef0:	e8 99 dc ff ff       	call   4b8e <stbi__malloc(unsigned long)>
    6ef5:	48 89 45 f8          	mov    QWORD PTR [rbp-0x8],rax
    6ef9:	48 83 7d f8 00       	cmp    QWORD PTR [rbp-0x8],0x0
    6efe:	75 25                	jne    6f25 <stbi__convert_format16(unsigned short*, int, int, unsigned int, unsigned int)+0xa5>
    6f00:	48 8b 45 d8          	mov    rax,QWORD PTR [rbp-0x28]
    6f04:	48 89 c7             	mov    rdi,rax
    6f07:	e8 24 d6 ff ff       	call   4530 <free@plt>
    6f0c:	48 8d 05 20 31 03 00 	lea    rax,[rip+0x33120]        # 3a033 <_IO_stdin_used+0x33>
    6f13:	48 89 c7             	mov    rdi,rax
    6f16:	e8 57 dc ff ff       	call   4b72 <stbi__err(char const*)>
    6f1b:	b8 00 00 00 00       	mov    eax,0x0
    6f20:	e9 d9 04 00 00       	jmp    73fe <stbi__convert_format16(unsigned short*, int, int, unsigned int, unsigned int)+0x57e>
    6f25:	c7 45 e4 00 00 00 00 	mov    DWORD PTR [rbp-0x1c],0x0
    6f2c:	e9 b1 04 00 00       	jmp    73e2 <stbi__convert_format16(unsigned short*, int, int, unsigned int, unsigned int)+0x562>
    6f31:	8b 45 e4             	mov    eax,DWORD PTR [rbp-0x1c]
    6f34:	0f af 45 cc          	imul   eax,DWORD PTR [rbp-0x34]
    6f38:	89 c2                	mov    edx,eax
    6f3a:	8b 45 d4             	mov    eax,DWORD PTR [rbp-0x2c]
    6f3d:	0f af c2             	imul   eax,edx
    6f40:	89 c0                	mov    eax,eax
    6f42:	48 8d 14 00          	lea    rdx,[rax+rax*1]
    6f46:	48 8b 45 d8          	mov    rax,QWORD PTR [rbp-0x28]
    6f4a:	48 01 d0             	add    rax,rdx
    6f4d:	48 89 45 e8          	mov    QWORD PTR [rbp-0x18],rax
    6f51:	8b 45 e4             	mov    eax,DWORD PTR [rbp-0x1c]
    6f54:	0f af 45 cc          	imul   eax,DWORD PTR [rbp-0x34]
    6f58:	89 c2                	mov    edx,eax
    6f5a:	8b 45 d0             	mov    eax,DWORD PTR [rbp-0x30]
    6f5d:	0f af c2             	imul   eax,edx
    6f60:	89 c0                	mov    eax,eax
    6f62:	48 8d 14 00          	lea    rdx,[rax+rax*1]
    6f66:	48 8b 45 f8          	mov    rax,QWORD PTR [rbp-0x8]
    6f6a:	48 01 d0             	add    rax,rdx
    6f6d:	48 89 45 f0          	mov    QWORD PTR [rbp-0x10],rax
    6f71:	8b 45 d4             	mov    eax,DWORD PTR [rbp-0x2c]
    6f74:	8d 14 c5 00 00 00 00 	lea    edx,[rax*8+0x0]
    6f7b:	8b 45 d0             	mov    eax,DWORD PTR [rbp-0x30]
    6f7e:	01 d0                	add    eax,edx
    6f80:	83 e8 0a             	sub    eax,0xa
    6f83:	83 f8 19             	cmp    eax,0x19
    6f86:	0f 87 2a 04 00 00    	ja     73b6 <stbi__convert_format16(unsigned short*, int, int, unsigned int, unsigned int)+0x536>
    6f8c:	89 c0                	mov    eax,eax
    6f8e:	48 8d 14 85 00 00 00 00 	lea    rdx,[rax*4+0x0]
    6f96:	48 8d 05 07 33 03 00 	lea    rax,[rip+0x33307]        # 3a2a4 <_IO_stdin_used+0x2a4>
    6f9d:	8b 04 02             	mov    eax,DWORD PTR [rdx+rax*1]
    6fa0:	48 98                	cdqe   
    6fa2:	48 8d 15 fb 32 03 00 	lea    rdx,[rip+0x332fb]        # 3a2a4 <_IO_stdin_used+0x2a4>
    6fa9:	48 01 d0             	add    rax,rdx
    6fac:	ff e0                	jmp    rax
    6fae:	8b 45 cc             	mov    eax,DWORD PTR [rbp-0x34]
    6fb1:	83 e8 01             	sub    eax,0x1
    6fb4:	89 45 e0             	mov    DWORD PTR [rbp-0x20],eax
    6fb7:	eb 29                	jmp    6fe2 <stbi__convert_format16(unsigned short*, int, int, unsigned int, unsigned int)+0x162>
    6fb9:	48 8b 45 e8          	mov    rax,QWORD PTR [rbp-0x18]
    6fbd:	0f b7 10             	movzx  edx,WORD PTR [rax]
    6fc0:	48 8b 45 f0          	mov    rax,QWORD PTR [rbp-0x10]
    6fc4:	66 89 10             	mov    WORD PTR [rax],dx
    6fc7:	48 8b 45 f0          	mov    rax,QWORD PTR [rbp-0x10]
    6fcb:	48 83 c0 02          	add    rax,0x2
    6fcf:	66 c7 00 ff ff       	mov    WORD PTR [rax],0xffff
    6fd4:	83 6d e0 01          	sub    DWORD PTR [rbp-0x20],0x1
    6fd8:	48 83 45 e8 02       	add    QWORD PTR [rbp-0x18],0x2
    6fdd:	48 83 45 f0 04       	add    QWORD PTR [rbp-0x10],0x4
    6fe2:	83 7d e0 00          	cmp    DWORD PTR [rbp-0x20],0x0
    6fe6:	79 d1                	jns    6fb9 <stbi__convert_format16(unsigned short*, int, int, unsigned int, unsigned int)+0x139>
    6fe8:	e9 f1 03 00 00       	jmp    73de <stbi__convert_format16(unsigned short*, int, int, unsigned int, unsigned int)+0x55e>
    6fed:	8b 45 cc             	mov    eax,DWORD PTR [rbp-0x34]
    6ff0:	83 e8 01             	sub    eax,0x1
    6ff3:	89 45 e0             	mov    DWORD PTR [rbp-0x20],eax
    6ff6:	eb 38                	jmp    7030 <stbi__convert_format16(unsigned short*, int, int, unsigned int, unsigned int)+0x1b0>
    6ff8:	48 8b 45 f0          	mov    rax,QWORD PTR [rbp-0x10]
    6ffc:	48 8d 50 04          	lea    rdx,[rax+0x4]
    7000:	48 8b 45 e8          	mov    rax,QWORD PTR [rbp-0x18]
    7004:	0f b7 00             	movzx  eax,WORD PTR [rax]
    7007:	66 89 02             	mov    WORD PTR [rdx],ax
    700a:	48 8b 45 f0          	mov    rax,QWORD PTR [rbp-0x10]
    700e:	48 83 c0 02          	add    rax,0x2
    7012:	0f b7 12             	movzx  edx,WORD PTR [rdx]
    7015:	66 89 10             	mov    WORD PTR [rax],dx
    7018:	0f b7 10             	movzx  edx,WORD PTR [rax]
    701b:	48 8b 45 f0          	mov    rax,QWORD PTR [rbp-0x10]
    701f:	66 89 10             	mov    WORD PTR [rax],dx
    7022:	83 6d e0 01          	sub    DWORD PTR [rbp-0x20],0x1
    7026:	48 83 45 e8 02       	add    QWORD PTR [rbp-0x18],0x2
    702b:	48 83 45 f0 06       	add    QWORD PTR [rbp-0x10],0x6
    7030:	83 7d e0 00          	cmp    DWORD PTR [rbp-0x20],0x0
    7034:	79 c2                	jns    6ff8 <stbi__convert_format16(unsigned short*, int, int, unsigned int, unsigned int)+0x178>
    7036:	e9 a3 03 00 00       	jmp    73de <stbi__convert_format16(unsigned short*, int, int, unsigned int, unsigned int)+0x55e>
    703b:	8b 45 cc             	mov    eax,DWORD PTR [rbp-0x34]
    703e:	83 e8 01             	sub    eax,0x1
    7041:	89 45 e0             	mov    DWORD PTR [rbp-0x20],eax
    7044:	eb 45                	jmp    708b <stbi__convert_format16(unsigned short*, int, int, unsigned int, unsigned int)+0x20b>
    7046:	48 8b 45 f0          	mov    rax,QWORD PTR [rbp-0x10]
    704a:	48 8d 50 04          	lea    rdx,[rax+0x4]
    704e:	48 8b 45 e8          	mov    rax,QWORD PTR [rbp-0x18]
    7052:	0f b7 00             	movzx  eax,WORD PTR [rax]
    7055:	66 89 02             	mov    WORD PTR [rdx],ax
    7058:	48 8b 45 f0          	mov    rax,QWORD PTR [rbp-0x10]
    705c:	48 83 c0 02          	add    rax,0x2
    7060:	0f b7 12             	movzx  edx,WORD PTR [rdx]
    7063:	66 89 10             	mov    WORD PTR [rax],dx
    7066:	0f b7 10             	movzx  edx,WORD PTR [rax]
    7069:	48 8b 45 f0          	mov    rax,QWORD PTR [rbp-0x10]
    706d:	66 89 10             	mov    WORD PTR [rax],dx
    7070:	48 8b 45 f0          	mov    rax,QWORD PTR [rbp-0x10]
    7074:	48 83 c0 06          	add    rax,0x6
    7078:	66 c7 00 ff ff       	mov    WORD PTR [rax],0xffff
    707d:	83 6d e0 01          	sub    DWORD PTR [rbp-0x20],0x1
    7081:	48 83 45 e8 02       	add    QWORD PTR [rbp-0x18],0x2
    7086:	48 83 45 f0 08       	add    QWORD PTR [rbp-0x10],0x8
    708b:	83 7d e0 00          	cmp    DWORD PTR [rbp-0x20],0x0
    708f:	79 b5                	jns    7046 <stbi__convert_format16(unsigned short*, int, int, unsigned int, unsigned int)+0x1c6>
    7091:	e9 48 03 00 00       	jmp    73de <stbi__convert_format16(unsigned short*, int, int, unsigned int, unsigned int)+0x55e>
    7096:	8b 45 cc             	mov    eax,DWORD PTR [rbp-0x34]
    7099:	83 e8 01             	sub    eax,0x1
    709c:	89 45 e0             	mov    DWORD PTR [rbp-0x20],eax
    709f:	eb 1c                	jmp    70bd <stbi__convert_format16(unsigned short*, int, int, unsigned int, unsigned int)+0x23d>
    70a1:	48 8b 45 e8          	mov    rax,QWORD PTR [rbp-0x18]
    70a5:	0f b7 10             	movzx  edx,WORD PTR [rax]
    70a8:	48 8b 45 f0          	mov    rax,QWORD PTR [rbp-0x10]
    70ac:	66 89 10             	mov    WORD PTR [rax],dx
    70af:	83 6d e0 01          	sub    DWORD PTR [rbp-0x20],0x1
    70b3:	48 83 45 e8 04       	add    QWORD PTR [rbp-0x18],0x4
    70b8:	48 83 45 f0 02       	add    QWORD PTR [rbp-0x10],0x2
    70bd:	83 7d e0 00          	cmp    DWORD PTR [rbp-0x20],0x0
    70c1:	79 de                	jns    70a1 <stbi__convert_format16(unsigned short*, int, int, unsigned int, unsigned int)+0x221>
    70c3:	e9 16 03 00 00       	jmp    73de <stbi__convert_format16(unsigned short*, int, int, unsigned int, unsigned int)+0x55e>
    70c8:	8b 45 cc             	mov    eax,DWORD PTR [rbp-0x34]
    70cb:	83 e8 01             	sub    eax,0x1
    70ce:	89 45 e0             	mov    DWORD PTR [rbp-0x20],eax
    70d1:	eb 38                	jmp    710b <stbi__convert_format16(unsigned short*, int, int, unsigned int, unsigned int)+0x28b>
    70d3:	48 8b 45 f0          	mov    rax,QWORD PTR [rbp-0x10]
    70d7:	48 8d 50 04          	lea    rdx,[rax+0x4]
    70db:	48 8b 45 e8          	mov    rax,QWORD PTR [rbp-0x18]
    70df:	0f b7 00             	movzx  eax,WORD PTR [rax]
    70e2:	66 89 02             	mov    WORD PTR [rdx],ax
    70e5:	48 8b 45 f0          	mov    rax,QWORD PTR [rbp-0x10]
    70e9:	48 83 c0 02          	add    rax,0x2
    70ed:	0f b7 12             	movzx  edx,WORD PTR [rdx]
    70f0:	66 89 10             	mov    WORD PTR [rax],dx
    70f3:	0f b7 10             	movzx  edx,WORD PTR [rax]
    70f6:	48 8b 45 f0          	mov    rax,QWORD PTR [rbp-0x10]
    70fa:	66 89 10             	mov    WORD PTR [rax],dx
    70fd:	83 6d e0 01          	sub    DWORD PTR [rbp-0x20],0x1
    7101:	48 83 45 e8 04       	add    QWORD PTR [rbp-0x18],0x4
    7106:	48 83 45 f0 06       	add    QWORD PTR [rbp-0x10],0x6
    710b:	83 7d e0 00          	cmp    DWORD PTR [rbp-0x20],0x0
    710f:	79 c2                	jns    70d3 <stbi__convert_format16(unsigned short*, int, int, unsigned int, unsigned int)+0x253>
    7111:	e9 c8 02 00 00       	jmp    73de <stbi__convert_format16(unsigned short*, int, int, unsigned int, unsigned int)+0x55e>
    7116:	8b 45 cc             	mov    eax,DWORD PTR [rbp-0x34]
    7119:	83 e8 01             	sub    eax,0x1
    711c:	89 45 e0             	mov    DWORD PTR [rbp-0x20],eax
    711f:	eb 4b                	jmp    716c <stbi__convert_format16(unsigned short*, int, int, unsigned int, unsigned int)+0x2ec>
    7121:	48 8b 45 f0          	mov    rax,QWORD PTR [rbp-0x10]
    7125:	48 8d 50 04          	lea    rdx,[rax+0x4]
    7129:	48 8b 45 e8          	mov    rax,QWORD PTR [rbp-0x18]
    712d:	0f b7 00             	movzx  eax,WORD PTR [rax]
    7130:	66 89 02             	mov    WORD PTR [rdx],ax
    7133:	48 8b 45 f0          	mov    rax,QWORD PTR [rbp-0x10]
    7137:	48 83 c0 02          	add    rax,0x2
    713b:	0f b7 12             	movzx  edx,WORD PTR [rdx]
    713e:	66 89 10             	mov    WORD PTR [rax],dx
    7141:	0f b7 10             	movzx  edx,WORD PTR [rax]
    7144:	48 8b 45 f0          	mov    rax,QWORD PTR [rbp-0x10]
    7148:	66 89 10             	mov    WORD PTR [rax],dx
    714b:	48 8b 45 f0          	mov    rax,QWORD PTR [rbp-0x10]
    714f:	48 8d 50 06          	lea    rdx,[rax+0x6]
    7153:	48 8b 45 e8          	mov    rax,QWORD PTR [rbp-0x18]
    7157:	0f b7 40 02          	movzx  eax,WORD PTR [rax+0x2]
    715b:	66 89 02             	mov    WORD PTR [rdx],ax
    715e:	83 6d e0 01          	sub    DWORD PTR [rbp-0x20],0x1
    7162:	48 83 45 e8 04       	add    QWORD PTR [rbp-0x18],0x4
    7167:	48 83 45 f0 08       	add    QWORD PTR [rbp-0x10],0x8
    716c:	83 7d e0 00          	cmp    DWORD PTR [rbp-0x20],0x0
    7170:	79 af                	jns    7121 <stbi__convert_format16(unsigned short*, int, int, unsigned int, unsigned int)+0x2a1>
    7172:	e9 67 02 00 00       	jmp    73de <stbi__convert_format16(unsigned short*, int, int, unsigned int, unsigned int)+0x55e>
    7177:	8b 45 cc             	mov    eax,DWORD PTR [rbp-0x34]
    717a:	83 e8 01             	sub    eax,0x1
    717d:	89 45 e0             	mov    DWORD PTR [rbp-0x20],eax
    7180:	eb 4f                	jmp    71d1 <stbi__convert_format16(unsigned short*, int, int, unsigned int, unsigned int)+0x351>
    7182:	48 8b 45 e8          	mov    rax,QWORD PTR [rbp-0x18]
    7186:	0f b7 10             	movzx  edx,WORD PTR [rax]
    7189:	48 8b 45 f0          	mov    rax,QWORD PTR [rbp-0x10]
    718d:	66 89 10             	mov    WORD PTR [rax],dx
    7190:	48 8b 45 f0          	mov    rax,QWORD PTR [rbp-0x10]
    7194:	48 8d 50 02          	lea    rdx,[rax+0x2]
    7198:	48 8b 45 e8          	mov    rax,QWORD PTR [rbp-0x18]
    719c:	0f b7 40 02          	movzx  eax,WORD PTR [rax+0x2]
    71a0:	66 89 02             	mov    WORD PTR [rdx],ax
    71a3:	48 8b 45 f0          	mov    rax,QWORD PTR [rbp-0x10]
    71a7:	48 8d 50 04          	lea    rdx,[rax+0x4]
    71ab:	48 8b 45 e8          	mov    rax,QWORD PTR [rbp-0x18]
    71af:	0f b7 40 04          	movzx  eax,WORD PTR [rax+0x4]
    71b3:	66 89 02             	mov    WORD PTR [rdx],ax
    71b6:	48 8b 45 f0          	mov    rax,QWORD PTR [rbp-0x10]
    71ba:	48 83 c0 06          	add    rax,0x6
    71be:	66 c7 00 ff ff       	mov    WORD PTR [rax],0xffff
    71c3:	83 6d e0 01          	sub    DWORD PTR [rbp-0x20],0x1
    71c7:	48 83 45 e8 06       	add    QWORD PTR [rbp-0x18],0x6
    71cc:	48 83 45 f0 08       	add    QWORD PTR [rbp-0x10],0x8
    71d1:	83 7d e0 00          	cmp    DWORD PTR [rbp-0x20],0x0
    71d5:	79 ab                	jns    7182 <stbi__convert_format16(unsigned short*, int, int, unsigned int, unsigned int)+0x302>
    71d7:	e9 02 02 00 00       	jmp    73de <stbi__convert_format16(unsigned short*, int, int, unsigned int, unsigned int)+0x55e>
    71dc:	8b 45 cc             	mov    eax,DWORD PTR [rbp-0x34]
    71df:	83 e8 01             	sub    eax,0x1
    71e2:	89 45 e0             	mov    DWORD PTR [rbp-0x20],eax
    71e5:	eb 44                	jmp    722b <stbi__convert_format16(unsigned short*, int, int, unsigned int, unsigned int)+0x3ab>
    71e7:	48 8b 45 e8          	mov    rax,QWORD PTR [rbp-0x18]
    71eb:	48 83 c0 04          	add    rax,0x4
    71ef:	0f b7 00             	movzx  eax,WORD PTR [rax]
    71f2:	0f b7 d0             	movzx  edx,ax
    71f5:	48 8b 45 e8          	mov    rax,QWORD PTR [rbp-0x18]
    71f9:	48 83 c0 02          	add    rax,0x2
    71fd:	0f b7 00             	movzx  eax,WORD PTR [rax]
    7200:	0f b7 c8             	movzx  ecx,ax
    7203:	48 8b 45 e8          	mov    rax,QWORD PTR [rbp-0x18]
    7207:	0f b7 00             	movzx  eax,WORD PTR [rax]
    720a:	0f b7 c0             	movzx  eax,ax
    720d:	89 ce                	mov    esi,ecx
    720f:	89 c7                	mov    edi,eax
    7211:	e8 3f fc ff ff       	call   6e55 <stbi__compute_y_16(int, int, int)>
    7216:	48 8b 55 f0          	mov    rdx,QWORD PTR [rbp-0x10]
    721a:	66 89 02             	mov    WORD PTR [rdx],ax
    721d:	83 6d e0 01          	sub    DWORD PTR [rbp-0x20],0x1
    7221:	48 83 45 e8 06       	add    QWORD PTR [rbp-0x18],0x6
    7226:	48 83 45 f0 02       	add    QWORD PTR [rbp-0x10],0x2
    722b:	83 7d e0 00          	cmp    DWORD PTR [rbp-0x20],0x0
    722f:	79 b6                	jns    71e7 <stbi__convert_format16(unsigned short*, int, int, unsigned int, unsigned int)+0x367>
    7231:	e9 a8 01 00 00       	jmp    73de <stbi__convert_format16(unsigned short*, int, int, unsigned int, unsigned int)+0x55e>
    7236:	8b 45 cc             	mov    eax,DWORD PTR [rbp-0x34]
    7239:	83 e8 01             	sub    eax,0x1
    723c:	89 45 e0             	mov    DWORD PTR [rbp-0x20],eax
    723f:	eb 51                	jmp    7292 <stbi__convert_format16(unsigned short*, int, int, unsigned int, unsigned int)+0x412>
    7241:	48 8b 45 e8          	mov    rax,QWORD PTR [rbp-0x18]
    7245:	48 83 c0 04          	add    rax,0x4
    7249:	0f b7 00             	movzx  eax,WORD PTR [rax]
    724c:	0f b7 d0             	movzx  edx,ax
    724f:	48 8b 45 e8          	mov    rax,QWORD PTR [rbp-0x18]
    7253:	48 83 c0 02          	add    rax,0x2
    7257:	0f b7 00             	movzx  eax,WORD PTR [rax]
    725a:	0f b7 c8             	movzx  ecx,ax
    725d:	48 8b 45 e8          	mov    rax,QWORD PTR [rbp-0x18]
    7261:	0f b7 00             	movzx  eax,WORD PTR [rax]
    7264:	0f b7 c0             	movzx  eax,ax
    7267:	89 ce                	mov    esi,ecx
    7269:	89 c7                	mov    edi,eax
    726b:	e8 e5 fb ff ff       	call   6e55 <stbi__compute_y_16(int, int, int)>
    7270:	48 8b 55 f0          	mov    rdx,QWORD PTR [rbp-0x10]
    7274:	66 89 02             	mov    WORD PTR [rdx],ax
    7277:	48 8b 45 f0          	mov    rax,QWORD PTR [rbp-0x10]
    727b:	48 83 c0 02          	add    rax,0x2
    727f:	66 c7 00 ff ff       	mov    WORD PTR [rax],0xffff
    7284:	83 6d e0 01          	sub    DWORD PTR [rbp-0x20],0x1
    7288:	48 83 45 e8 06       	add    QWORD PTR [rbp-0x18],0x6
    728d:	48 83 45 f0 04       	add    QWORD PTR [rbp-0x10],0x4
    7292:	83 7d e0 00          	cmp    DWORD PTR [rbp-0x20],0x0
    7296:	79 a9                	jns    7241 <stbi__convert_format16(unsigned short*, int, int, unsigned int, unsigned int)+0x3c1>
    7298:	e9 41 01 00 00       	jmp    73de <stbi__convert_format16(unsigned short*, int, int, unsigned int, unsigned int)+0x55e>
    729d:	8b 45 cc             	mov    eax,DWORD PTR [rbp-0x34]
    72a0:	83 e8 01             	sub    eax,0x1
    72a3:	89 45 e0             	mov    DWORD PTR [rbp-0x20],eax
    72a6:	eb 44                	jmp    72ec <stbi__convert_format16(unsigned short*, int, int, unsigned int, unsigned int)+0x46c>
    72a8:	48 8b 45 e8          	mov    rax,QWORD PTR [rbp-0x18]
    72ac:	48 83 c0 04          	add    rax,0x4
    72b0:	0f b7 00             	movzx  eax,WORD PTR [rax]
    72b3:	0f b7 d0             	movzx  edx,ax
    72b6:	48 8b 45 e8          	mov    rax,QWORD PTR [rbp-0x18]
    72ba:	48 83 c0 02          	add    rax,0x2
    72be:	0f b7 00             	movzx  eax,WORD PTR [rax]
    72c1:	0f b7 c8             	movzx  ecx,ax
    72c4:	48 8b 45 e8          	mov    rax,QWORD PTR [rbp-0x18]
    72c8:	0f b7 00             	movzx  eax,WORD PTR [rax]
    72cb:	0f b7 c0             	movzx  eax,ax
    72ce:	89 ce                	mov    esi,ecx
    72d0:	89 c7                	mov    edi,eax
    72d2:	e8 7e fb ff ff       	call   6e55 <stbi__compute_y_16(int, int, int)>
    72d7:	48 8b 55 f0          	mov    rdx,QWORD PTR [rbp-0x10]
    72db:	66 89 02             	mov    WORD PTR [rdx],ax
    72de:	83 6d e0 01          	sub    DWORD PTR [rbp-0x20],0x1
    72e2:	48 83 45 e8 08       	add    QWORD PTR [rbp-0x18],0x8
    72e7:	48 83 45 f0 02       	add    QWORD PTR [rbp-0x10],0x2
    72ec:	83 7d e0 00          	cmp    DWORD PTR [rbp-0x20],0x0
    72f0:	79 b6                	jns    72a8 <stbi__convert_format16(unsigned short*, int, int, unsigned int, unsigned int)+0x428>
    72f2:	e9 e7 00 00 00       	jmp    73de <stbi__convert_format16(unsigned short*, int, int, unsigned int, unsigned int)+0x55e>
    72f7:	8b 45 cc             	mov    eax,DWORD PTR [rbp-0x34]
    72fa:	83 e8 01             	sub    eax,0x1
    72fd:	89 45 e0             	mov    DWORD PTR [rbp-0x20],eax
    7300:	eb 57                	jmp    7359 <stbi__convert_format16(unsigned short*, int, int, unsigned int, unsigned int)+0x4d9>
    7302:	48 8b 45 e8          	mov    rax,QWORD PTR [rbp-0x18]
    7306:	48 83 c0 04          	add    rax,0x4
    730a:	0f b7 00             	movzx  eax,WORD PTR [rax]
    730d:	0f b7 d0             	movzx  edx,ax
    7310:	48 8b 45 e8          	mov    rax,QWORD PTR [rbp-0x18]
    7314:	48 83 c0 02          	add    rax,0x2
    7318:	0f b7 00             	movzx  eax,WORD PTR [rax]
    731b:	0f b7 c8             	movzx  ecx,ax
    731e:	48 8b 45 e8          	mov    rax,QWORD PTR [rbp-0x18]
    7322:	0f b7 00             	movzx  eax,WORD PTR [rax]
    7325:	0f b7 c0             	movzx  eax,ax
    7328:	89 ce                	mov    esi,ecx
    732a:	89 c7                	mov    edi,eax
    732c:	e8 24 fb ff ff       	call   6e55 <stbi__compute_y_16(int, int, int)>
    7331:	48 8b 55 f0          	mov    rdx,QWORD PTR [rbp-0x10]
    7335:	66 89 02             	mov    WORD PTR [rdx],ax
    7338:	48 8b 45 f0          	mov    rax,QWORD PTR [rbp-0x10]
    733c:	48 8d 50 02          	lea    rdx,[rax+0x2]
    7340:	48 8b 45 e8          	mov    rax,QWORD PTR [rbp-0x18]
    7344:	0f b7 40 06          	movzx  eax,WORD PTR [rax+0x6]
    7348:	66 89 02             	mov    WORD PTR [rdx],ax
    734b:	83 6d e0 01          	sub    DWORD PTR [rbp-0x20],0x1
    734f:	48 83 45 e8 08       	add    QWORD PTR [rbp-0x18],0x8
    7354:	48 83 45 f0 04       	add    QWORD PTR [rbp-0x10],0x4
    7359:	83 7d e0 00          	cmp    DWORD PTR [rbp-0x20],0x0
    735d:	79 a3                	jns    7302 <stbi__convert_format16(unsigned short*, int, int, unsigned int, unsigned int)+0x482>
    735f:	eb 7d                	jmp    73de <stbi__convert_format16(unsigned short*, int, int, unsigned int, unsigned int)+0x55e>
    7361:	8b 45 cc             	mov    eax,DWORD PTR [rbp-0x34]
    7364:	83 e8 01             	sub    eax,0x1
    7367:	89 45 e0             	mov    DWORD PTR [rbp-0x20],eax
    736a:	eb 42                	jmp    73ae <stbi__convert_format16(unsigned short*, int, int, unsigned int, unsigned int)+0x52e>
    736c:	48 8b 45 e8          	mov    rax,QWORD PTR [rbp-0x18]
    7370:	0f b7 10             	movzx  edx,WORD PTR [rax]
    7373:	48 8b 45 f0          	mov    rax,QWORD PTR [rbp-0x10]
    7377:	66 89 10             	mov    WORD PTR [rax],dx
    737a:	48 8b 45 f0          	mov    rax,QWORD PTR [rbp-0x10]
    737e:	48 8d 50 02          	lea    rdx,[rax+0x2]
    7382:	48 8b 45 e8          	mov    rax,QWORD PTR [rbp-0x18]
    7386:	0f b7 40 02          	movzx  eax,WORD PTR [rax+0x2]
    738a:	66 89 02             	mov    WORD PTR [rdx],ax
    738d:	48 8b 45 f0          	mov    rax,QWORD PTR [rbp-0x10]
    7391:	48 8d 50 04          	lea    rdx,[rax+0x4]
    7395:	48 8b 45 e8          	mov    rax,QWORD PTR [rbp-0x18]
    7399:	0f b7 40 04          	movzx  eax,WORD PTR [rax+0x4]
    739d:	66 89 02             	mov    WORD PTR [rdx],ax
    73a0:	83 6d e0 01          	sub    DWORD PTR [rbp-0x20],0x1
    73a4:	48 83 45 e8 08       	add    QWORD PTR [rbp-0x18],0x8
    73a9:	48 83 45 f0 06       	add    QWORD PTR [rbp-0x10],0x6
    73ae:	83 7d e0 00          	cmp    DWORD PTR [rbp-0x20],0x0
    73b2:	79 b8                	jns    736c <stbi__convert_format16(unsigned short*, int, int, unsigned int, unsigned int)+0x4ec>
    73b4:	eb 28                	jmp    73de <stbi__convert_format16(unsigned short*, int, int, unsigned int, unsigned int)+0x55e>
    73b6:	48 8d 05 8b 2e 03 00 	lea    rax,[rip+0x32e8b]        # 3a248 <_IO_stdin_used+0x248>
    73bd:	48 89 c1             	mov    rcx,rax
    73c0:	ba d2 06 00 00       	mov    edx,0x6d2
    73c5:	48 8d 05 cc 2c 03 00 	lea    rax,[rip+0x32ccc]        # 3a098 <_IO_stdin_used+0x98>
    73cc:	48 89 c6             	mov    rsi,rax
    73cf:	48 8d 05 01 2e 03 00 	lea    rax,[rip+0x32e01]        # 3a1d7 <_IO_stdin_used+0x1d7>
    73d6:	48 89 c7             	mov    rdi,rax
    73d9:	e8 a2 ce ff ff       	call   4280 <__assert_fail@plt>
    73de:	83 45 e4 01          	add    DWORD PTR [rbp-0x1c],0x1
    73e2:	8b 45 c8             	mov    eax,DWORD PTR [rbp-0x38]
    73e5:	39 45 e4             	cmp    DWORD PTR [rbp-0x1c],eax
    73e8:	0f 8c 43 fb ff ff    	jl     6f31 <stbi__convert_format16(unsigned short*, int, int, unsigned int, unsigned int)+0xb1>
    73ee:	48 8b 45 d8          	mov    rax,QWORD PTR [rbp-0x28]
    73f2:	48 89 c7             	mov    rdi,rax
    73f5:	e8 36 d1 ff ff       	call   4530 <free@plt>
    73fa:	48 8b 45 f8          	mov    rax,QWORD PTR [rbp-0x8]
    73fe:	c9                   	leave  
    73ff:	c3                   	ret    

0000000000007400 <stbi__ldr_to_hdr(unsigned char*, int, int, int)>:
    7400:	55                   	push   rbp
    7401:	48 89 e5             	mov    rbp,rsp
    7404:	48 83 ec 40          	sub    rsp,0x40
    7408:	48 89 7d d8          	mov    QWORD PTR [rbp-0x28],rdi
    740c:	89 75 d4             	mov    DWORD PTR [rbp-0x2c],esi
    740f:	89 55 d0             	mov    DWORD PTR [rbp-0x30],edx
    7412:	89 4d cc             	mov    DWORD PTR [rbp-0x34],ecx
    7415:	48 83 7d d8 00       	cmp    QWORD PTR [rbp-0x28],0x0
    741a:	75 0a                	jne    7426 <stbi__ldr_to_hdr(unsigned char*, int, int, int)+0x26>
    741c:	b8 00 00 00 00       	mov    eax,0x0
    7421:	e9 9e 01 00 00       	jmp    75c4 <stbi__ldr_to_hdr(unsigned char*, int, int, int)+0x1c4>
    7426:	8b 55 cc             	mov    edx,DWORD PTR [rbp-0x34]
    7429:	8b 75 d0             	mov    esi,DWORD PTR [rbp-0x30]
    742c:	8b 45 d4             	mov    eax,DWORD PTR [rbp-0x2c]
    742f:	41 b8 00 00 00 00    	mov    r8d,0x0
    7435:	b9 04 00 00 00       	mov    ecx,0x4
    743a:	89 c7                	mov    edi,eax
    743c:	e8 b6 d9 ff ff       	call   4df7 <stbi__malloc_mad4(int, int, int, int, int)>
    7441:	48 89 45 f8          	mov    QWORD PTR [rbp-0x8],rax
    7445:	48 83 7d f8 00       	cmp    QWORD PTR [rbp-0x8],0x0
    744a:	75 25                	jne    7471 <stbi__ldr_to_hdr(unsigned char*, int, int, int)+0x71>
    744c:	48 8b 45 d8          	mov    rax,QWORD PTR [rbp-0x28]
    7450:	48 89 c7             	mov    rdi,rax
    7453:	e8 d8 d0 ff ff       	call   4530 <free@plt>
    7458:	48 8d 05 d4 2b 03 00 	lea    rax,[rip+0x32bd4]        # 3a033 <_IO_stdin_used+0x33>
    745f:	48 89 c7             	mov    rdi,rax
    7462:	e8 0b d7 ff ff       	call   4b72 <stbi__err(char const*)>
    7467:	b8 00 00 00 00       	mov    eax,0x0
    746c:	e9 53 01 00 00       	jmp    75c4 <stbi__ldr_to_hdr(unsigned char*, int, int, int)+0x1c4>
    7471:	8b 45 cc             	mov    eax,DWORD PTR [rbp-0x34]
    7474:	83 e0 01             	and    eax,0x1
    7477:	85 c0                	test   eax,eax
    7479:	74 08                	je     7483 <stbi__ldr_to_hdr(unsigned char*, int, int, int)+0x83>
    747b:	8b 45 cc             	mov    eax,DWORD PTR [rbp-0x34]
    747e:	89 45 f4             	mov    DWORD PTR [rbp-0xc],eax
    7481:	eb 09                	jmp    748c <stbi__ldr_to_hdr(unsigned char*, int, int, int)+0x8c>
    7483:	8b 45 cc             	mov    eax,DWORD PTR [rbp-0x34]
    7486:	83 e8 01             	sub    eax,0x1
    7489:	89 45 f4             	mov    DWORD PTR [rbp-0xc],eax
    748c:	c7 45 ec 00 00 00 00 	mov    DWORD PTR [rbp-0x14],0x0
    7493:	e9 96 00 00 00       	jmp    752e <stbi__ldr_to_hdr(unsigned char*, int, int, int)+0x12e>
    7498:	c7 45 f0 00 00 00 00 	mov    DWORD PTR [rbp-0x10],0x0
    749f:	eb 7d                	jmp    751e <stbi__ldr_to_hdr(unsigned char*, int, int, int)+0x11e>
    74a1:	f3 0f 10 15 97 2f 04 00 	movss  xmm2,DWORD PTR [rip+0x42f97]        # 4a440 <stbi__l2h_gamma>
    74a9:	8b 45 ec             	mov    eax,DWORD PTR [rbp-0x14]
    74ac:	0f af 45 cc          	imul   eax,DWORD PTR [rbp-0x34]
    74b0:	89 c2                	mov    edx,eax
    74b2:	8b 45 f0             	mov    eax,DWORD PTR [rbp-0x10]
    74b5:	01 d0                	add    eax,edx
    74b7:	48 63 d0             	movsxd rdx,eax
    74ba:	48 8b 45 d8          	mov    rax,QWORD PTR [rbp-0x28]
    74be:	48 01 d0             	add    rax,rdx
    74c1:	0f b6 00             	movzx  eax,BYTE PTR [rax]
    74c4:	0f b6 c0             	movzx  eax,al
    74c7:	66 0f ef c0          	pxor   xmm0,xmm0
    74cb:	f3 0f 2a c0          	cvtsi2ss xmm0,eax
    74cf:	f3 0f 10 0d 71 55 03 00 	movss  xmm1,DWORD PTR [rip+0x35571]        # 3ca48 <NANO_SEC+0x1780>
    74d7:	f3 0f 5e c1          	divss  xmm0,xmm1
    74db:	66 0f 7e c0          	movd   eax,xmm0
    74df:	0f 28 ca             	movaps xmm1,xmm2
    74e2:	66 0f 6e c0          	movd   xmm0,eax
    74e6:	e8 42 de 01 00       	call   2532d <std::pow(float, float)>
    74eb:	f3 0f 10 0d 51 2f 04 00 	movss  xmm1,DWORD PTR [rip+0x42f51]        # 4a444 <stbi__l2h_scale>
    74f3:	8b 45 ec             	mov    eax,DWORD PTR [rbp-0x14]
    74f6:	0f af 45 cc          	imul   eax,DWORD PTR [rbp-0x34]
    74fa:	89 c2                	mov    edx,eax
    74fc:	8b 45 f0             	mov    eax,DWORD PTR [rbp-0x10]
    74ff:	01 d0                	add    eax,edx
    7501:	48 98                	cdqe   
    7503:	48 8d 14 85 00 00 00 00 	lea    rdx,[rax*4+0x0]
    750b:	48 8b 45 f8          	mov    rax,QWORD PTR [rbp-0x8]
    750f:	48 01 d0             	add    rax,rdx
    7512:	f3 0f 59 c1          	mulss  xmm0,xmm1
    7516:	f3 0f 11 00          	movss  DWORD PTR [rax],xmm0
    751a:	83 45 f0 01          	add    DWORD PTR [rbp-0x10],0x1
    751e:	8b 45 f0             	mov    eax,DWORD PTR [rbp-0x10]
    7521:	3b 45 f4             	cmp    eax,DWORD PTR [rbp-0xc]
    7524:	0f 8c 77 ff ff ff    	jl     74a1 <stbi__ldr_to_hdr(unsigned char*, int, int, int)+0xa1>
    752a:	83 45 ec 01          	add    DWORD PTR [rbp-0x14],0x1
    752e:	8b 45 d4             	mov    eax,DWORD PTR [rbp-0x2c]
    7531:	0f af 45 d0          	imul   eax,DWORD PTR [rbp-0x30]
    7535:	39 45 ec             	cmp    DWORD PTR [rbp-0x14],eax
    7538:	0f 8c 5a ff ff ff    	jl     7498 <stbi__ldr_to_hdr(unsigned char*, int, int, int)+0x98>
    753e:	8b 45 f4             	mov    eax,DWORD PTR [rbp-0xc]
    7541:	3b 45 cc             	cmp    eax,DWORD PTR [rbp-0x34]
    7544:	7d 6e                	jge    75b4 <stbi__ldr_to_hdr(unsigned char*, int, int, int)+0x1b4>
    7546:	c7 45 ec 00 00 00 00 	mov    DWORD PTR [rbp-0x14],0x0
    754d:	eb 59                	jmp    75a8 <stbi__ldr_to_hdr(unsigned char*, int, int, int)+0x1a8>
    754f:	8b 45 ec             	mov    eax,DWORD PTR [rbp-0x14]
    7552:	0f af 45 cc          	imul   eax,DWORD PTR [rbp-0x34]
    7556:	89 c2                	mov    edx,eax
    7558:	8b 45 f4             	mov    eax,DWORD PTR [rbp-0xc]
    755b:	01 d0                	add    eax,edx
    755d:	48 63 d0             	movsxd rdx,eax
    7560:	48 8b 45 d8          	mov    rax,QWORD PTR [rbp-0x28]
    7564:	48 01 d0             	add    rax,rdx
    7567:	0f b6 00             	movzx  eax,BYTE PTR [rax]
    756a:	0f b6 c0             	movzx  eax,al
    756d:	66 0f ef c0          	pxor   xmm0,xmm0
    7571:	f3 0f 2a c0          	cvtsi2ss xmm0,eax
    7575:	8b 45 ec             	mov    eax,DWORD PTR [rbp-0x14]
    7578:	0f af 45 cc          	imul   eax,DWORD PTR [rbp-0x34]
    757c:	89 c2                	mov    edx,eax
    757e:	8b 45 f4             	mov    eax,DWORD PTR [rbp-0xc]
    7581:	01 d0                	add    eax,edx
    7583:	48 98                	cdqe   
    7585:	48 8d 14 85 00 00 00 00 	lea    rdx,[rax*4+0x0]
    758d:	48 8b 45 f8          	mov    rax,QWORD PTR [rbp-0x8]
    7591:	48 01 d0             	add    rax,rdx
    7594:	f3 0f 10 0d ac 54 03 00 	movss  xmm1,DWORD PTR [rip+0x354ac]        # 3ca48 <NANO_SEC+0x1780>
    759c:	f3 0f 5e c1          	divss  xmm0,xmm1
    75a0:	f3 0f 11 00          	movss  DWORD PTR [rax],xmm0
    75a4:	83 45 ec 01          	add    DWORD PTR [rbp-0x14],0x1
    75a8:	8b 45 d4             	mov    eax,DWORD PTR [rbp-0x2c]
    75ab:	0f af 45 d0          	imul   eax,DWORD PTR [rbp-0x30]
    75af:	39 45 ec             	cmp    DWORD PTR [rbp-0x14],eax
    75b2:	7c 9b                	jl     754f <stbi__ldr_to_hdr(unsigned char*, int, int, int)+0x14f>
    75b4:	48 8b 45 d8          	mov    rax,QWORD PTR [rbp-0x28]
    75b8:	48 89 c7             	mov    rdi,rax
    75bb:	e8 70 cf ff ff       	call   4530 <free@plt>
    75c0:	48 8b 45 f8          	mov    rax,QWORD PTR [rbp-0x8]
    75c4:	c9                   	leave  
    75c5:	c3                   	ret    

00000000000075c6 <stbi__hdr_to_ldr(float*, int, int, int)>:
    75c6:	55                   	push   rbp
    75c7:	48 89 e5             	mov    rbp,rsp
    75ca:	48 83 ec 40          	sub    rsp,0x40
    75ce:	48 89 7d d8          	mov    QWORD PTR [rbp-0x28],rdi
    75d2:	89 75 d4             	mov    DWORD PTR [rbp-0x2c],esi
    75d5:	89 55 d0             	mov    DWORD PTR [rbp-0x30],edx
    75d8:	89 4d cc             	mov    DWORD PTR [rbp-0x34],ecx
    75db:	48 83 7d d8 00       	cmp    QWORD PTR [rbp-0x28],0x0
    75e0:	75 0a                	jne    75ec <stbi__hdr_to_ldr(float*, int, int, int)+0x26>
    75e2:	b8 00 00 00 00       	mov    eax,0x0
    75e7:	e9 fe 01 00 00       	jmp    77ea <stbi__hdr_to_ldr(float*, int, int, int)+0x224>
    75ec:	8b 55 cc             	mov    edx,DWORD PTR [rbp-0x34]
    75ef:	8b 75 d0             	mov    esi,DWORD PTR [rbp-0x30]
    75f2:	8b 45 d4             	mov    eax,DWORD PTR [rbp-0x2c]
    75f5:	b9 00 00 00 00       	mov    ecx,0x0
    75fa:	89 c7                	mov    edi,eax
    75fc:	e8 a0 d7 ff ff       	call   4da1 <stbi__malloc_mad3(int, int, int, int)>
    7601:	48 89 45 f8          	mov    QWORD PTR [rbp-0x8],rax
    7605:	48 83 7d f8 00       	cmp    QWORD PTR [rbp-0x8],0x0
    760a:	75 25                	jne    7631 <stbi__hdr_to_ldr(float*, int, int, int)+0x6b>
    760c:	48 8b 45 d8          	mov    rax,QWORD PTR [rbp-0x28]
    7610:	48 89 c7             	mov    rdi,rax
    7613:	e8 18 cf ff ff       	call   4530 <free@plt>
    7618:	48 8d 05 14 2a 03 00 	lea    rax,[rip+0x32a14]        # 3a033 <_IO_stdin_used+0x33>
    761f:	48 89 c7             	mov    rdi,rax
    7622:	e8 4b d5 ff ff       	call   4b72 <stbi__err(char const*)>
    7627:	b8 00 00 00 00       	mov    eax,0x0
    762c:	e9 b9 01 00 00       	jmp    77ea <stbi__hdr_to_ldr(float*, int, int, int)+0x224>
    7631:	8b 45 cc             	mov    eax,DWORD PTR [rbp-0x34]
    7634:	83 e0 01             	and    eax,0x1
    7637:	85 c0                	test   eax,eax
    7639:	74 08                	je     7643 <stbi__hdr_to_ldr(float*, int, int, int)+0x7d>
    763b:	8b 45 cc             	mov    eax,DWORD PTR [rbp-0x34]
    763e:	89 45 ec             	mov    DWORD PTR [rbp-0x14],eax
    7641:	eb 09                	jmp    764c <stbi__hdr_to_ldr(float*, int, int, int)+0x86>
    7643:	8b 45 cc             	mov    eax,DWORD PTR [rbp-0x34]
    7646:	83 e8 01             	sub    eax,0x1
    7649:	89 45 ec             	mov    DWORD PTR [rbp-0x14],eax
    764c:	c7 45 e4 00 00 00 00 	mov    DWORD PTR [rbp-0x1c],0x0
    7653:	e9 72 01 00 00       	jmp    77ca <stbi__hdr_to_ldr(float*, int, int, int)+0x204>
    7658:	c7 45 e8 00 00 00 00 	mov    DWORD PTR [rbp-0x18],0x0
    765f:	e9 b9 00 00 00       	jmp    771d <stbi__hdr_to_ldr(float*, int, int, int)+0x157>
    7664:	f3 0f 10 15 dc 2d 04 00 	movss  xmm2,DWORD PTR [rip+0x42ddc]        # 4a448 <stbi__h2l_gamma_i>
    766c:	8b 45 e4             	mov    eax,DWORD PTR [rbp-0x1c]
    766f:	0f af 45 cc          	imul   eax,DWORD PTR [rbp-0x34]
    7673:	89 c2                	mov    edx,eax
    7675:	8b 45 e8             	mov    eax,DWORD PTR [rbp-0x18]
    7678:	01 d0                	add    eax,edx
    767a:	48 98                	cdqe   
    767c:	48 8d 14 85 00 00 00 00 	lea    rdx,[rax*4+0x0]
    7684:	48 8b 45 d8          	mov    rax,QWORD PTR [rbp-0x28]
    7688:	48 01 d0             	add    rax,rdx
    768b:	f3 0f 10 08          	movss  xmm1,DWORD PTR [rax]
    768f:	f3 0f 10 05 b5 2d 04 00 	movss  xmm0,DWORD PTR [rip+0x42db5]        # 4a44c <stbi__h2l_scale_i>
    7697:	f3 0f 59 c8          	mulss  xmm1,xmm0
    769b:	66 0f 7e c8          	movd   eax,xmm1
    769f:	0f 28 ca             	movaps xmm1,xmm2
    76a2:	66 0f 6e c0          	movd   xmm0,eax
    76a6:	e8 82 dc 01 00       	call   2532d <std::pow(float, float)>
    76ab:	f3 0f 10 0d 95 53 03 00 	movss  xmm1,DWORD PTR [rip+0x35395]        # 3ca48 <NANO_SEC+0x1780>
    76b3:	f3 0f 59 c8          	mulss  xmm1,xmm0
    76b7:	f3 0f 10 05 8d 53 03 00 	movss  xmm0,DWORD PTR [rip+0x3538d]        # 3ca4c <NANO_SEC+0x1784>
    76bf:	f3 0f 58 c1          	addss  xmm0,xmm1
    76c3:	f3 0f 11 45 f0       	movss  DWORD PTR [rbp-0x10],xmm0
    76c8:	66 0f ef c0          	pxor   xmm0,xmm0
    76cc:	0f 2f 45 f0          	comiss xmm0,DWORD PTR [rbp-0x10]
    76d0:	76 09                	jbe    76db <stbi__hdr_to_ldr(float*, int, int, int)+0x115>
    76d2:	66 0f ef c0          	pxor   xmm0,xmm0
    76d6:	f3 0f 11 45 f0       	movss  DWORD PTR [rbp-0x10],xmm0
    76db:	f3 0f 10 45 f0       	movss  xmm0,DWORD PTR [rbp-0x10]
    76e0:	0f 2f 05 61 53 03 00 	comiss xmm0,DWORD PTR [rip+0x35361]        # 3ca48 <NANO_SEC+0x1780>
    76e7:	76 0d                	jbe    76f6 <stbi__hdr_to_ldr(float*, int, int, int)+0x130>
    76e9:	f3 0f 10 05 57 53 03 00 	movss  xmm0,DWORD PTR [rip+0x35357]        # 3ca48 <NANO_SEC+0x1780>
    76f1:	f3 0f 11 45 f0       	movss  DWORD PTR [rbp-0x10],xmm0
    76f6:	f3 0f 10 45 f0       	movss  xmm0,DWORD PTR [rbp-0x10]
    76fb:	f3 0f 2c d0          	cvttss2si edx,xmm0
    76ff:	8b 45 e4             	mov    eax,DWORD PTR [rbp-0x1c]
    7702:	0f af 45 cc          	imul   eax,DWORD PTR [rbp-0x34]
    7706:	89 c1                	mov    ecx,eax
    7708:	8b 45 e8             	mov    eax,DWORD PTR [rbp-0x18]
    770b:	01 c8                	add    eax,ecx
    770d:	48 63 c8             	movsxd rcx,eax
    7710:	48 8b 45 f8          	mov    rax,QWORD PTR [rbp-0x8]
    7714:	48 01 c8             	add    rax,rcx
    7717:	88 10                	mov    BYTE PTR [rax],dl
    7719:	83 45 e8 01          	add    DWORD PTR [rbp-0x18],0x1
    771d:	8b 45 e8             	mov    eax,DWORD PTR [rbp-0x18]
    7720:	3b 45 ec             	cmp    eax,DWORD PTR [rbp-0x14]
    7723:	0f 8c 3b ff ff ff    	jl     7664 <stbi__hdr_to_ldr(float*, int, int, int)+0x9e>
    7729:	8b 45 e8             	mov    eax,DWORD PTR [rbp-0x18]
    772c:	3b 45 cc             	cmp    eax,DWORD PTR [rbp-0x34]
    772f:	0f 8d 91 00 00 00    	jge    77c6 <stbi__hdr_to_ldr(float*, int, int, int)+0x200>
    7735:	8b 45 e4             	mov    eax,DWORD PTR [rbp-0x1c]
    7738:	0f af 45 cc          	imul   eax,DWORD PTR [rbp-0x34]
    773c:	89 c2                	mov    edx,eax
